EXPORTS 
	?$TSS0@?1??get_paths_from_env_variable@SourceFile@backward@@AEAAAEBV?$vector@V?$basic_string@DU?$char_traits@D@std@@V?$allocator@D@2@@std@@V?$allocator@V?$basic_string@DU?$char_traits@D@std@@V?$allocator@D@2@@std@@@2@@std@@XZ@4HA 	 DATA
	??_R0?AV?$TraceResolverImpl@Uwindows_tag@system_tag@backward@@@backward@@@8 	 DATA
	??_R0?AV?$_Iosb@H@std@@@8 	 DATA
	??_R0?AV?$basic_filebuf@DU?$char_traits@D@std@@@std@@@8 	 DATA
	??_R0?AV?$basic_ifstream@DU?$char_traits@D@std@@@std@@@8 	 DATA
	??_R0?AV?$basic_ios@DU?$char_traits@D@std@@@std@@@8 	 DATA
	??_R0?AV?$basic_istream@DU?$char_traits@D@std@@@std@@@8 	 DATA
	??_R0?AV?$basic_ostream@DU?$char_traits@D@std@@@std@@@8 	 DATA
	??_R0?AV?$basic_ostringstream@DU?$char_traits@D@std@@V?$allocator@D@2@@std@@@8 	 DATA
	??_R0?AV?$basic_streambuf@DU?$char_traits@D@std@@@std@@@8 	 DATA
	??_R0?AV?$basic_stringbuf@DU?$char_traits@D@std@@V?$allocator@D@2@@std@@@8 	 DATA
	??_R0?AVTraceResolver@backward@@@8 	 DATA
	??_R0?AVTraceResolverImplBase@backward@@@8 	 DATA
	??_R0?AVbad_alloc@std@@@8 	 DATA
	??_R0?AVbad_array_new_length@std@@@8 	 DATA
	??_R0?AVbad_cast@std@@@8 	 DATA
	??_R0?AVexception@std@@@8 	 DATA
	??_R0?AVinvalid_argument@std@@@8 	 DATA
	??_R0?AVios_base@std@@@8 	 DATA
	??_R0?AVlogic_error@std@@@8 	 DATA
	??_R0?AVout_of_range@std@@@8 	 DATA
	??_R0?AVruntime_error@std@@@8 	 DATA
	?_OptionsStorage@?1??__local_stdio_printf_options@@9@4_KA 	 DATA
	?_OptionsStorage@?1??__local_stdio_scanf_options@@9@4_KA 	 DATA
	?_Psave@?$_Facetptr@V?$codecvt@DDU_Mbstatet@@@std@@@std@@2PEBVfacet@locale@2@EB 	 DATA
	?_Stinit@?1??_Init@?$basic_filebuf@DU?$char_traits@D@std@@@std@@IEAAXPEAU_iobuf@@W4_Initfl@23@@Z@4U_Mbstatet@@A 	 DATA
	?paths@?1??get_paths_from_env_variable@SourceFile@backward@@AEAAAEBV?$vector@V?$basic_string@DU?$char_traits@D@std@@V?$allocator@D@2@@std@@V?$allocator@V?$basic_string@DU?$char_traits@D@std@@V?$allocator@D@2@@std@@@2@@std@@XZ@4V45@A 	 DATA
	__isa_available_default 	 DATA
	??$?0$$BY03D$0A@@?$basic_format_string@DV?$basic_string@DU?$char_traits@D@std@@V?$allocator@D@2@@std@@@v8@fmt@@QEAA@AEAY03$$CBD@Z
	??$?0$$BY04D$0A@@?$basic_format_string@DV?$basic_string@DU?$char_traits@D@std@@V?$allocator@D@2@@std@@@v8@fmt@@QEAA@AEAY04$$CBD@Z
	??$?0$$BY0DF@D$0A@@?$basic_format_string@DAEAPEBDAEAPEBDAEAHAEAY0BAAA@D@v8@fmt@@QEAA@AEAY0DF@$$CBD@Z
	??$?0V?$_String_iterator@V?$_String_val@U?$_Simple_types@D@std@@@std@@@std@@$0A@@?$vector@DV?$allocator@D@std@@@std@@QEAA@V?$_String_iterator@V?$_String_val@U?$_Simple_types@D@std@@@std@@@1@0AEBV?$allocator@D@1@@Z
	??$?6DU?$char_traits@D@std@@V?$allocator@D@1@@std@@YAAEAV?$basic_ostream@DU?$char_traits@D@std@@@0@AEAV10@AEBV?$basic_string@DU?$char_traits@D@std@@V?$allocator@D@2@@0@@Z
	??$?6DU?$char_traits@D@std@@_J@std@@YAAEAV?$basic_ostream@DU?$char_traits@D@std@@@0@AEAV10@AEBU?$_Smanip@_J@0@@Z
	??$?6U?$char_traits@D@std@@@std@@YAAEAV?$basic_ostream@DU?$char_traits@D@std@@@0@AEAV10@PEBD@Z
	??$?9HV?$allocator@H@std@@@std@@YA_NAEBV?$vector@HV?$allocator@H@std@@@0@0@Z
	??$?HDU?$char_traits@D@std@@V?$allocator@D@1@@std@@YA?AV?$basic_string@DU?$char_traits@D@std@@V?$allocator@D@2@@0@$$QEAV10@0@Z
	??$?HDU?$char_traits@D@std@@V?$allocator@D@1@@std@@YA?AV?$basic_string@DU?$char_traits@D@std@@V?$allocator@D@2@@0@$$QEAV10@QEBD@Z
	??$?HDU?$char_traits@D@std@@V?$allocator@D@1@@std@@YA?AV?$basic_string@DU?$char_traits@D@std@@V?$allocator@D@2@@0@QEBD$$QEAV10@@Z
	??$?HDU?$char_traits@D@std@@V?$allocator@D@1@@std@@YA?AV?$basic_string@DU?$char_traits@D@std@@V?$allocator@D@2@@0@QEBDAEBV10@@Z
	??$?MDU?$char_traits@D@std@@V?$allocator@D@1@@std@@YA_NAEBV?$basic_string@DU?$char_traits@D@std@@V?$allocator@D@2@@0@0@Z
	??$_Allocate_manually_vector_aligned@U_Default_allocate_traits@std@@@std@@YAPEAX_K@Z
	??$_Assign_range@PEAH@?$vector@HV?$allocator@H@std@@@std@@AEAAXPEAH0Uforward_iterator_tag@1@@Z
	??$_Assign_range@PEAM@?$vector@MV?$allocator@M@std@@@std@@AEAAXPEAM0Uforward_iterator_tag@1@@Z
	??$_Atomic_address_as@DU?$_Atomic_padded@_N@std@@@std@@YAPECDAEAU?$_Atomic_padded@_N@0@@Z
	??$_Atomic_reinterpret_as@D_N@std@@YADAEB_N@Z
	??$_Copy_backward_memmove@PEAPEAUecl_rft_cell_struct@@PEAPEAU1@@std@@YAPEAPEAUecl_rft_cell_struct@@PEAPEAU1@00@Z
	??$_Copy_backward_memmove@PEAPEAUecl_rft_node_struct@@PEAPEAU1@@std@@YAPEAPEAUecl_rft_node_struct@@PEAPEAU1@00@Z
	??$_Copy_backward_memmove@PEAPEAUwell_node_type@@PEAPEAU1@@std@@YAPEAPEAUwell_node_type@@PEAPEAU1@00@Z
	??$_Copy_backward_memmove@PEAPEAVecl_sum_file_data@ecl@@PEAPEAV12@@std@@YAPEAPEAVecl_sum_file_data@ecl@@PEAPEAV12@00@Z
	??$_Copy_backward_memmove@PEAUecl_nnc_pair_struct@@PEAU1@@std@@YAPEAUecl_nnc_pair_struct@@PEAU1@00@Z
	??$_Copy_memmove@PEADPEAD@std@@YAPEADPEAD00@Z
	??$_Copy_memmove@PEAHPEAH@std@@YAPEAHPEAH00@Z
	??$_Copy_memmove@PEAIPEAI@std@@YAPEAIPEAI00@Z
	??$_Copy_memmove@PEAMPEAM@std@@YAPEAMPEAM00@Z
	??$_Copy_memmove@PEANPEAN@std@@YAPEANPEAN00@Z
	??$_Copy_memmove@PEAPEAUHINSTANCE__@@PEAPEAU1@@std@@YAPEAPEAUHINSTANCE__@@PEAPEAU1@00@Z
	??$_Copy_memmove@PEAPEAUecl_file_kw_struct@@PEAPEAU1@@std@@YAPEAPEAUecl_file_kw_struct@@PEAPEAU1@00@Z
	??$_Copy_memmove@PEAPEAUecl_file_view_struct@@PEAPEAU1@@std@@YAPEAPEAUecl_file_view_struct@@PEAPEAU1@00@Z
	??$_Copy_memmove@PEAPEAUecl_grav_phase_struct@@PEAPEAU1@@std@@YAPEAPEAUecl_grav_phase_struct@@PEAPEAU1@00@Z
	??$_Copy_memmove@PEAPEAUecl_rft_cell_struct@@PEAPEAU1@@std@@YAPEAPEAUecl_rft_cell_struct@@PEAPEAU1@00@Z
	??$_Copy_memmove@PEAPEAUecl_rft_node_struct@@PEAPEAU1@@std@@YAPEAPEAUecl_rft_node_struct@@PEAPEAU1@00@Z
	??$_Copy_memmove@PEAPEAUwell_conn_struct@@PEAPEAU1@@std@@YAPEAPEAUwell_conn_struct@@PEAPEAU1@00@Z
	??$_Copy_memmove@PEAPEAUwell_node_type@@PEAPEAU1@@std@@YAPEAPEAUwell_node_type@@PEAPEAU1@00@Z
	??$_Copy_memmove@PEAPEAUwell_segment_struct@@PEAPEAU1@@std@@YAPEAPEAUwell_segment_struct@@PEAPEAU1@00@Z
	??$_Copy_memmove@PEAPEAVecl_sum_file_data@ecl@@PEAPEAV12@@std@@YAPEAPEAVecl_sum_file_data@ecl@@PEAPEAV12@00@Z
	??$_Copy_memmove@PEAPEAXPEAPEAX@std@@YAPEAPEAXPEAPEAX00@Z
	??$_Copy_memmove@PEAU?$pair@HH@std@@PEAU12@@std@@YAPEAU?$pair@HH@0@PEAU10@00@Z
	??$_Copy_memmove@PEAUIndexNode@ecl@@PEAU12@@std@@YAPEAUIndexNode@ecl@@PEAU12@00@Z
	??$_Copy_memmove@PEAUecl_nnc_pair_struct@@PEAU1@@std@@YAPEAUecl_nnc_pair_struct@@PEAU1@00@Z
	??$_Copy_memmove@PEAUint_point2d_type@@PEAU1@@std@@YAPEAUint_point2d_type@@PEAU1@00@Z
	??$_Copy_memmove@PEA_JPEA_J@std@@YAPEA_JPEA_J00@Z
	??$_Destroy_range@V?$allocator@U?$pair@IV?$basic_string@DU?$char_traits@D@std@@V?$allocator@D@2@@std@@@std@@@std@@@std@@YAXPEAU?$pair@IV?$basic_string@DU?$char_traits@D@std@@V?$allocator@D@2@@std@@@0@QEAU10@AEAV?$allocator@U?$pair@IV?$basic_string@DU?$char_traits@D@std@@V?$allocator@D@2@@std@@@std@@@0@@Z
	??$_Destroy_range@V?$allocator@Umodule_data@backward@@@std@@@std@@YAXPEAUmodule_data@backward@@QEAU12@AEAV?$allocator@Umodule_data@backward@@@0@@Z
	??$_Destroy_range@V?$allocator@V?$basic_string@DU?$char_traits@D@std@@V?$allocator@D@2@@std@@@std@@@std@@YAXPEAV?$basic_string@DU?$char_traits@D@std@@V?$allocator@D@2@@0@QEAV10@AEAV?$allocator@V?$basic_string@DU?$char_traits@D@std@@V?$allocator@D@2@@std@@@0@@Z
	??$_Destroy_range@V?$allocator@V?$unique_ptr@Vsmspec_node@ecl@@U?$default_delete@Vsmspec_node@ecl@@@std@@@std@@@std@@@std@@YAXPEAV?$unique_ptr@Vsmspec_node@ecl@@U?$default_delete@Vsmspec_node@ecl@@@std@@@0@QEAV10@AEAV?$allocator@V?$unique_ptr@Vsmspec_node@ecl@@U?$default_delete@Vsmspec_node@ecl@@@std@@@std@@@0@@Z
	??$_Emplace_reallocate@AEA_JAEANAEAH@?$vector@UIndexNode@ecl@@V?$allocator@UIndexNode@ecl@@@std@@@std@@QEAAPEAUIndexNode@ecl@@QEAU23@AEA_JAEANAEAH@Z
	??$_Emplace_reallocate@AEBH@?$vector@HV?$allocator@H@std@@@std@@QEAAPEAHQEAHAEBH@Z
	??$_Emplace_reallocate@AEBN@?$vector@NV?$allocator@N@std@@@std@@QEAAPEANQEANAEBN@Z
	??$_Emplace_reallocate@AEBQEAUecl_file_kw_struct@@@?$vector@PEAUecl_file_kw_struct@@V?$allocator@PEAUecl_file_kw_struct@@@std@@@std@@QEAAPEAPEAUecl_file_kw_struct@@QEAPEAU2@AEBQEAU2@@Z
	??$_Emplace_reallocate@AEBQEAUecl_file_view_struct@@@?$vector@PEAUecl_file_view_struct@@V?$allocator@PEAUecl_file_view_struct@@@std@@@std@@QEAAPEAPEAUecl_file_view_struct@@QEAPEAU2@AEBQEAU2@@Z
	??$_Emplace_reallocate@AEBQEAUecl_grav_phase_struct@@@?$vector@PEAUecl_grav_phase_struct@@V?$allocator@PEAUecl_grav_phase_struct@@@std@@@std@@QEAAPEAPEAUecl_grav_phase_struct@@QEAPEAU2@AEBQEAU2@@Z
	??$_Emplace_reallocate@AEBQEAUecl_rft_cell_struct@@@?$vector@PEAUecl_rft_cell_struct@@V?$allocator@PEAUecl_rft_cell_struct@@@std@@@std@@QEAAPEAPEAUecl_rft_cell_struct@@QEAPEAU2@AEBQEAU2@@Z
	??$_Emplace_reallocate@AEBQEAUecl_rft_node_struct@@@?$vector@PEAUecl_rft_node_struct@@V?$allocator@PEAUecl_rft_node_struct@@@std@@@std@@QEAAPEAPEAUecl_rft_node_struct@@QEAPEAU2@AEBQEAU2@@Z
	??$_Emplace_reallocate@AEBQEAUwell_conn_struct@@@?$vector@PEAUwell_conn_struct@@V?$allocator@PEAUwell_conn_struct@@@std@@@std@@QEAAPEAPEAUwell_conn_struct@@QEAPEAU2@AEBQEAU2@@Z
	??$_Emplace_reallocate@AEBQEAUwell_node_type@@@?$vector@PEAUwell_node_type@@V?$allocator@PEAUwell_node_type@@@std@@@std@@QEAAPEAPEAUwell_node_type@@QEAPEAU2@AEBQEAU2@@Z
	??$_Emplace_reallocate@AEBQEAUwell_segment_struct@@@?$vector@PEAUwell_segment_struct@@V?$allocator@PEAUwell_segment_struct@@@std@@@std@@QEAAPEAPEAUwell_segment_struct@@QEAPEAU2@AEBQEAU2@@Z
	??$_Emplace_reallocate@AEBQEAVecl_sum_file_data@ecl@@@?$vector@PEAVecl_sum_file_data@ecl@@V?$allocator@PEAVecl_sum_file_data@ecl@@@std@@@std@@QEAAPEAPEAVecl_sum_file_data@ecl@@QEAPEAV23@AEBQEAV23@@Z
	??$_Emplace_reallocate@AEBUecl_nnc_pair_struct@@@?$vector@Uecl_nnc_pair_struct@@V?$allocator@Uecl_nnc_pair_struct@@@std@@@std@@QEAAPEAUecl_nnc_pair_struct@@QEAU2@AEBU2@@Z
	??$_Emplace_reallocate@AEBUint_point2d_type@@@?$vector@Uint_point2d_type@@V?$allocator@Uint_point2d_type@@@std@@@std@@QEAAPEAUint_point2d_type@@QEAU2@AEBU2@@Z
	??$_Emplace_reallocate@AEBV?$basic_string@DU?$char_traits@D@std@@V?$allocator@D@2@@std@@@?$vector@V?$basic_string@DU?$char_traits@D@std@@V?$allocator@D@2@@std@@V?$allocator@V?$basic_string@DU?$char_traits@D@std@@V?$allocator@D@2@@std@@@2@@std@@QEAAPEAV?$basic_string@DU?$char_traits@D@std@@V?$allocator@D@2@@1@QEAV21@AEBV21@@Z
	??$_Emplace_reallocate@H@?$vector@HV?$allocator@H@std@@@std@@QEAAPEAHQEAH$$QEAH@Z
	??$_Emplace_reallocate@N@?$vector@NV?$allocator@N@std@@@std@@QEAAPEANQEAN$$QEAN@Z
	??$_Emplace_reallocate@PEAX@?$vector@PEAXV?$allocator@PEAX@std@@@std@@QEAAPEAPEAXQEAPEAX$$QEAPEAX@Z
	??$_Emplace_reallocate@U?$pair@IV?$basic_string@DU?$char_traits@D@std@@V?$allocator@D@2@@std@@@std@@@?$vector@U?$pair@IV?$basic_string@DU?$char_traits@D@std@@V?$allocator@D@2@@std@@@std@@V?$allocator@U?$pair@IV?$basic_string@DU?$char_traits@D@std@@V?$allocator@D@2@@std@@@std@@@2@@std@@QEAAPEAU?$pair@IV?$basic_string@DU?$char_traits@D@std@@V?$allocator@D@2@@std@@@1@QEAU21@$$QEAU21@@Z
	??$_Emplace_reallocate@Umodule_data@backward@@@?$vector@Umodule_data@backward@@V?$allocator@Umodule_data@backward@@@std@@@std@@QEAAPEAUmodule_data@backward@@QEAU23@$$QEAU23@@Z
	??$_Emplace_reallocate@V?$basic_string@DU?$char_traits@D@std@@V?$allocator@D@2@@std@@@?$vector@V?$basic_string@DU?$char_traits@D@std@@V?$allocator@D@2@@std@@V?$allocator@V?$basic_string@DU?$char_traits@D@std@@V?$allocator@D@2@@std@@@2@@std@@QEAAPEAV?$basic_string@DU?$char_traits@D@std@@V?$allocator@D@2@@1@QEAV21@$$QEAV21@@Z
	??$_Emplace_reallocate@V?$unique_ptr@Vsmspec_node@ecl@@U?$default_delete@Vsmspec_node@ecl@@@std@@@std@@@?$vector@V?$unique_ptr@Vsmspec_node@ecl@@U?$default_delete@Vsmspec_node@ecl@@@std@@@std@@V?$allocator@V?$unique_ptr@Vsmspec_node@ecl@@U?$default_delete@Vsmspec_node@ecl@@@std@@@std@@@2@@std@@QEAAPEAV?$unique_ptr@Vsmspec_node@ecl@@U?$default_delete@Vsmspec_node@ecl@@@std@@@1@QEAV21@$$QEAV21@@Z
	??$_Erase_tree@V?$allocator@U?$_Tree_node@U?$pair@$$CBHH@std@@PEAX@std@@@std@@@?$_Tree_val@U?$_Tree_simple_types@U?$pair@$$CBHH@std@@@std@@@std@@QEAAXAEAV?$allocator@U?$_Tree_node@U?$pair@$$CBHH@std@@PEAX@std@@@1@PEAU?$_Tree_node@U?$pair@$$CBHH@std@@PEAX@1@@Z
	??$_Erase_tree@V?$allocator@U?$_Tree_node@U?$pair@$$CBHV?$map@V?$basic_string@DU?$char_traits@D@std@@V?$allocator@D@2@@std@@PEBVsmspec_node@ecl@@U?$less@V?$basic_string@DU?$char_traits@D@std@@V?$allocator@D@2@@std@@@2@V?$allocator@U?$pair@$$CBV?$basic_string@DU?$char_traits@D@std@@V?$allocator@D@2@@std@@PEBVsmspec_node@ecl@@@std@@@2@@std@@@std@@PEAX@std@@@std@@@?$_Tree_val@U?$_Tree_simple_types@U?$pair@$$CBHV?$map@V?$basic_string@DU?$char_traits@D@std@@V?$allocator@D@2@@std@@PEBVsmspec_node@ecl@@U?$less@V?$basic_string@DU?$char_traits@D@std@@V?$allocator@D@2@@std@@@2@V?$allocator@U?$pair@$$CBV?$basic_string@DU?$char_traits@D@std@@V?$allocator@D@2@@std@@PEBVsmspec_node@ecl@@@std@@@2@@std@@@std@@@std@@@std@@QEAAXAEAV?$allocator@U?$_Tree_node@U?$pair@$$CBHV?$map@V?$basic_string@DU?$char_traits@D@std@@V?$allocator@D@2@@std@@PEBVsmspec_node@ecl@@U?$less@V?$basic_string@DU?$char_traits@D@std@@V?$allocator@D@2@@std@@@2@V?$allocator@U?$pair@$$CBV?$basic_string@DU?$char_traits@D@std@@V?$allocator@D@2@@std@@PEBVsmspec_node@ecl@@@std@@@2@@std@@@std@@PEAX@std@@@1@PEAU?$_Tree_node@U?$pair@$$CBHV?$map@V?$basic_string@DU?$char_traits@D@std@@V?$allocator@D@2@@std@@PEBVsmspec_node@ecl@@U?$less@V?$basic_string@DU?$char_traits@D@std@@V?$allocator@D@2@@std@@@2@V?$allocator@U?$pair@$$CBV?$basic_string@DU?$char_traits@D@std@@V?$allocator@D@2@@std@@PEBVsmspec_node@ecl@@@std@@@2@@std@@@std@@PEAX@1@@Z
	??$_Erase_tree@V?$allocator@U?$_Tree_node@U?$pair@$$CBV?$basic_string@DU?$char_traits@D@std@@V?$allocator@D@2@@std@@PEAUgeo_polygon_struct@@@std@@PEAX@std@@@std@@@?$_Tree_val@U?$_Tree_simple_types@U?$pair@$$CBV?$basic_string@DU?$char_traits@D@std@@V?$allocator@D@2@@std@@PEAUgeo_polygon_struct@@@std@@@std@@@std@@QEAAXAEAV?$allocator@U?$_Tree_node@U?$pair@$$CBV?$basic_string@DU?$char_traits@D@std@@V?$allocator@D@2@@std@@PEAUgeo_polygon_struct@@@std@@PEAX@std@@@1@PEAU?$_Tree_node@U?$pair@$$CBV?$basic_string@DU?$char_traits@D@std@@V?$allocator@D@2@@std@@PEAUgeo_polygon_struct@@@std@@PEAX@1@@Z
	??$_Erase_tree@V?$allocator@U?$_Tree_node@U?$pair@$$CBV?$basic_string@DU?$char_traits@D@std@@V?$allocator@D@2@@std@@PEAUwell_conn_collection_struct@@@std@@PEAX@std@@@std@@@?$_Tree_val@U?$_Tree_simple_types@U?$pair@$$CBV?$basic_string@DU?$char_traits@D@std@@V?$allocator@D@2@@std@@PEAUwell_conn_collection_struct@@@std@@@std@@@std@@QEAAXAEAV?$allocator@U?$_Tree_node@U?$pair@$$CBV?$basic_string@DU?$char_traits@D@std@@V?$allocator@D@2@@std@@PEAUwell_conn_collection_struct@@@std@@PEAX@std@@@1@PEAU?$_Tree_node@U?$pair@$$CBV?$basic_string@DU?$char_traits@D@std@@V?$allocator@D@2@@std@@PEAUwell_conn_collection_struct@@@std@@PEAX@1@@Z
	??$_Erase_tree@V?$allocator@U?$_Tree_node@U?$pair@$$CBV?$basic_string@DU?$char_traits@D@std@@V?$allocator@D@2@@std@@PEAUwell_conn_struct@@@std@@PEAX@std@@@std@@@?$_Tree_val@U?$_Tree_simple_types@U?$pair@$$CBV?$basic_string@DU?$char_traits@D@std@@V?$allocator@D@2@@std@@PEAUwell_conn_struct@@@std@@@std@@@std@@QEAAXAEAV?$allocator@U?$_Tree_node@U?$pair@$$CBV?$basic_string@DU?$char_traits@D@std@@V?$allocator@D@2@@std@@PEAUwell_conn_struct@@@std@@PEAX@std@@@1@PEAU?$_Tree_node@U?$pair@$$CBV?$basic_string@DU?$char_traits@D@std@@V?$allocator@D@2@@std@@PEAUwell_conn_struct@@@std@@PEAX@1@@Z
	??$_Erase_tree@V?$allocator@U?$_Tree_node@U?$pair@$$CBV?$basic_string@DU?$char_traits@D@std@@V?$allocator@D@2@@std@@PEAUwell_ts_struct@@@std@@PEAX@std@@@std@@@?$_Tree_val@U?$_Tree_simple_types@U?$pair@$$CBV?$basic_string@DU?$char_traits@D@std@@V?$allocator@D@2@@std@@PEAUwell_ts_struct@@@std@@@std@@@std@@QEAAXAEAV?$allocator@U?$_Tree_node@U?$pair@$$CBV?$basic_string@DU?$char_traits@D@std@@V?$allocator@D@2@@std@@PEAUwell_ts_struct@@@std@@PEAX@std@@@1@PEAU?$_Tree_node@U?$pair@$$CBV?$basic_string@DU?$char_traits@D@std@@V?$allocator@D@2@@std@@PEAUwell_ts_struct@@@std@@PEAX@1@@Z
	??$_Erase_tree@V?$allocator@U?$_Tree_node@U?$pair@$$CBV?$basic_string@DU?$char_traits@D@std@@V?$allocator@D@2@@std@@PEBVsmspec_node@ecl@@@std@@PEAX@std@@@std@@@?$_Tree_val@U?$_Tree_simple_types@U?$pair@$$CBV?$basic_string@DU?$char_traits@D@std@@V?$allocator@D@2@@std@@PEBVsmspec_node@ecl@@@std@@@std@@@std@@QEAAXAEAV?$allocator@U?$_Tree_node@U?$pair@$$CBV?$basic_string@DU?$char_traits@D@std@@V?$allocator@D@2@@std@@PEBVsmspec_node@ecl@@@std@@PEAX@std@@@1@PEAU?$_Tree_node@U?$pair@$$CBV?$basic_string@DU?$char_traits@D@std@@V?$allocator@D@2@@std@@PEBVsmspec_node@ecl@@@std@@PEAX@1@@Z
	??$_Erase_tree@V?$allocator@U?$_Tree_node@U?$pair@$$CBV?$basic_string@DU?$char_traits@D@std@@V?$allocator@D@2@@std@@V?$map@HV?$map@V?$basic_string@DU?$char_traits@D@std@@V?$allocator@D@2@@std@@PEBVsmspec_node@ecl@@U?$less@V?$basic_string@DU?$char_traits@D@std@@V?$allocator@D@2@@std@@@2@V?$allocator@U?$pair@$$CBV?$basic_string@DU?$char_traits@D@std@@V?$allocator@D@2@@std@@PEBVsmspec_node@ecl@@@std@@@2@@std@@U?$less@H@2@V?$allocator@U?$pair@$$CBHV?$map@V?$basic_string@DU?$char_traits@D@std@@V?$allocator@D@2@@std@@PEBVsmspec_node@ecl@@U?$less@V?$basic_string@DU?$char_traits@D@std@@V?$allocator@D@2@@std@@@2@V?$allocator@U?$pair@$$CBV?$basic_string@DU?$char_traits@D@std@@V?$allocator@D@2@@std@@PEBVsmspec_node@ecl@@@std@@@2@@std@@@std@@@2@@2@@std@@PEAX@std@@@std@@@?$_Tree_val@U?$_Tree_simple_types@U?$pair@$$CBV?$basic_string@DU?$char_traits@D@std@@V?$allocator@D@2@@std@@V?$map@HV?$map@V?$basic_string@DU?$char_traits@D@std@@V?$allocator@D@2@@std@@PEBVsmspec_node@ecl@@U?$less@V?$basic_string@DU?$char_traits@D@std@@V?$allocator@D@2@@std@@@2@V?$allocator@U?$pair@$$CBV?$basic_string@DU?$char_traits@D@std@@V?$allocator@D@2@@std@@PEBVsmspec_node@ecl@@@std@@@2@@std@@U?$less@H@2@V?$allocator@U?$pair@$$CBHV?$map@V?$basic_string@DU?$char_traits@D@std@@V?$allocator@D@2@@std@@PEBVsmspec_node@ecl@@U?$less@V?$basic_string@DU?$char_traits@D@std@@V?$allocator@D@2@@std@@@2@V?$allocator@U?$pair@$$CBV?$basic_string@DU?$char_traits@D@std@@V?$allocator@D@2@@std@@PEBVsmspec_node@ecl@@@std@@@2@@std@@@std@@@2@@2@@std@@@std@@@std@@QEAAXAEAV?$allocator@U?$_Tree_node@U?$pair@$$CBV?$basic_string@DU?$char_traits@D@std@@V?$allocator@D@2@@std@@V?$map@HV?$map@V?$basic_string@DU?$char_traits@D@std@@V?$allocator@D@2@@std@@PEBVsmspec_node@ecl@@U?$less@V?$basic_string@DU?$char_traits@D@std@@V?$allocator@D@2@@std@@@2@V?$allocator@U?$pair@$$CBV?$basic_string@DU?$char_traits@D@std@@V?$allocator@D@2@@std@@PEBVsmspec_node@ecl@@@std@@@2@@std@@U?$less@H@2@V?$allocator@U?$pair@$$CBHV?$map@V?$basic_string@DU?$char_traits@D@std@@V?$allocator@D@2@@std@@PEBVsmspec_node@ecl@@U?$less@V?$basic_string@DU?$char_traits@D@std@@V?$allocator@D@2@@std@@@2@V?$allocator@U?$pair@$$CBV?$basic_string@DU?$char_traits@D@std@@V?$allocator@D@2@@std@@PEBVsmspec_node@ecl@@@std@@@2@@std@@@std@@@2@@2@@std@@PEAX@std@@@1@PEAU?$_Tree_node@U?$pair@$$CBV?$basic_string@DU?$char_traits@D@std@@V?$allocator@D@2@@std@@V?$map@HV?$map@V?$basic_string@DU?$char_traits@D@std@@V?$allocator@D@2@@std@@PEBVsmspec_node@ecl@@U?$less@V?$basic_string@DU?$char_traits@D@std@@V?$allocator@D@2@@std@@@2@V?$allocator@U?$pair@$$CBV?$basic_string@DU?$char_traits@D@std@@V?$allocator@D@2@@std@@PEBVsmspec_node@ecl@@@std@@@2@@std@@U?$less@H@2@V?$allocator@U?$pair@$$CBHV?$map@V?$basic_string@DU?$char_traits@D@std@@V?$allocator@D@2@@std@@PEBVsmspec_node@ecl@@U?$less@V?$basic_string@DU?$char_traits@D@std@@V?$allocator@D@2@@std@@@2@V?$allocator@U?$pair@$$CBV?$basic_string@DU?$char_traits@D@std@@V?$allocator@D@2@@std@@PEBVsmspec_node@ecl@@@std@@@2@@std@@@std@@@2@@2@@std@@PEAX@1@@Z
	??$_Erase_tree@V?$allocator@U?$_Tree_node@U?$pair@$$CBV?$basic_string@DU?$char_traits@D@std@@V?$allocator@D@2@@std@@V?$map@V?$basic_string@DU?$char_traits@D@std@@V?$allocator@D@2@@std@@PEBVsmspec_node@ecl@@U?$less@V?$basic_string@DU?$char_traits@D@std@@V?$allocator@D@2@@std@@@2@V?$allocator@U?$pair@$$CBV?$basic_string@DU?$char_traits@D@std@@V?$allocator@D@2@@std@@PEBVsmspec_node@ecl@@@std@@@2@@2@@std@@PEAX@std@@@std@@@?$_Tree_val@U?$_Tree_simple_types@U?$pair@$$CBV?$basic_string@DU?$char_traits@D@std@@V?$allocator@D@2@@std@@V?$map@V?$basic_string@DU?$char_traits@D@std@@V?$allocator@D@2@@std@@PEBVsmspec_node@ecl@@U?$less@V?$basic_string@DU?$char_traits@D@std@@V?$allocator@D@2@@std@@@2@V?$allocator@U?$pair@$$CBV?$basic_string@DU?$char_traits@D@std@@V?$allocator@D@2@@std@@PEBVsmspec_node@ecl@@@std@@@2@@2@@std@@@std@@@std@@QEAAXAEAV?$allocator@U?$_Tree_node@U?$pair@$$CBV?$basic_string@DU?$char_traits@D@std@@V?$allocator@D@2@@std@@V?$map@V?$basic_string@DU?$char_traits@D@std@@V?$allocator@D@2@@std@@PEBVsmspec_node@ecl@@U?$less@V?$basic_string@DU?$char_traits@D@std@@V?$allocator@D@2@@std@@@2@V?$allocator@U?$pair@$$CBV?$basic_string@DU?$char_traits@D@std@@V?$allocator@D@2@@std@@PEBVsmspec_node@ecl@@@std@@@2@@2@@std@@PEAX@std@@@1@PEAU?$_Tree_node@U?$pair@$$CBV?$basic_string@DU?$char_traits@D@std@@V?$allocator@D@2@@std@@V?$map@V?$basic_string@DU?$char_traits@D@std@@V?$allocator@D@2@@std@@PEBVsmspec_node@ecl@@U?$less@V?$basic_string@DU?$char_traits@D@std@@V?$allocator@D@2@@std@@@2@V?$allocator@U?$pair@$$CBV?$basic_string@DU?$char_traits@D@std@@V?$allocator@D@2@@std@@PEBVsmspec_node@ecl@@@std@@@2@@2@@std@@PEAX@1@@Z
	??$_Erase_tree@V?$allocator@U?$_Tree_node@U?$pair@$$CBV?$basic_string@DU?$char_traits@D@std@@V?$allocator@D@2@@std@@V?$vector@HV?$allocator@H@std@@@2@@std@@PEAX@std@@@std@@@?$_Tree_val@U?$_Tree_simple_types@U?$pair@$$CBV?$basic_string@DU?$char_traits@D@std@@V?$allocator@D@2@@std@@V?$vector@HV?$allocator@H@std@@@2@@std@@@std@@@std@@QEAAXAEAV?$allocator@U?$_Tree_node@U?$pair@$$CBV?$basic_string@DU?$char_traits@D@std@@V?$allocator@D@2@@std@@V?$vector@HV?$allocator@H@std@@@2@@std@@PEAX@std@@@1@PEAU?$_Tree_node@U?$pair@$$CBV?$basic_string@DU?$char_traits@D@std@@V?$allocator@D@2@@std@@V?$vector@HV?$allocator@H@std@@@2@@std@@PEAX@1@@Z
	??$_Erase_tree@V?$allocator@U?$_Tree_node@V?$basic_string@DU?$char_traits@D@std@@V?$allocator@D@2@@std@@PEAX@std@@@std@@@?$_Tree_val@U?$_Tree_simple_types@V?$basic_string@DU?$char_traits@D@std@@V?$allocator@D@2@@std@@@std@@@std@@QEAAXAEAV?$allocator@U?$_Tree_node@V?$basic_string@DU?$char_traits@D@std@@V?$allocator@D@2@@std@@PEAX@std@@@1@PEAU?$_Tree_node@V?$basic_string@DU?$char_traits@D@std@@V?$allocator@D@2@@std@@PEAX@1@@Z
	??$_Fill_zero_memset@PEAH@std@@YAXPEAH_K@Z
	??$_Fill_zero_memset@PEAI@std@@YAXPEAI_K@Z
	??$_Fill_zero_memset@PEAM@std@@YAXPEAM_K@Z
	??$_Fill_zero_memset@PEAN@std@@YAXPEAN_K@Z
	??$_Fill_zero_memset@PEAPEAUwell_conn_struct@@@std@@YAXPEAPEAUwell_conn_struct@@_K@Z
	??$_Fill_zero_memset@PEA_J@std@@YAXPEA_J_K@Z
	??$_Find_hint@V?$basic_string@DU?$char_traits@D@std@@V?$allocator@D@2@@std@@@?$_Tree@V?$_Tset_traits@V?$basic_string@DU?$char_traits@D@std@@V?$allocator@D@2@@std@@U?$less@V?$basic_string@DU?$char_traits@D@std@@V?$allocator@D@2@@std@@@2@V?$allocator@V?$basic_string@DU?$char_traits@D@std@@V?$allocator@D@2@@std@@@2@$0A@@std@@@std@@IEBA?AU?$_Tree_find_hint_result@PEAU?$_Tree_node@V?$basic_string@DU?$char_traits@D@std@@V?$allocator@D@2@@std@@PEAX@std@@@1@QEAU?$_Tree_node@V?$basic_string@DU?$char_traits@D@std@@V?$allocator@D@2@@std@@PEAX@1@AEBV?$basic_string@DU?$char_traits@D@std@@V?$allocator@D@2@@1@@Z
	??$_Find_last@V?$basic_string@DU?$char_traits@D@std@@V?$allocator@D@2@@std@@@?$_Hash@V?$_Umap_traits@V?$basic_string@DU?$char_traits@D@std@@V?$allocator@D@2@@std@@NV?$_Uhash_compare@V?$basic_string@DU?$char_traits@D@std@@V?$allocator@D@2@@std@@U?$hash@V?$basic_string@DU?$char_traits@D@std@@V?$allocator@D@2@@std@@@2@U?$equal_to@V?$basic_string@DU?$char_traits@D@std@@V?$allocator@D@2@@std@@@2@@2@V?$allocator@U?$pair@$$CBV?$basic_string@DU?$char_traits@D@std@@V?$allocator@D@2@@std@@N@std@@@2@$0A@@std@@@std@@IEBA?AU?$_Hash_find_last_result@PEAU?$_List_node@U?$pair@$$CBV?$basic_string@DU?$char_traits@D@std@@V?$allocator@D@2@@std@@N@std@@PEAX@std@@@1@AEBV?$basic_string@DU?$char_traits@D@std@@V?$allocator@D@2@@1@_K@Z
	??$_Find_last@V?$basic_string@DU?$char_traits@D@std@@V?$allocator@D@2@@std@@@?$_Hash@V?$_Umap_traits@V?$basic_string@DU?$char_traits@D@std@@V?$allocator@D@2@@std@@PEAUecl_grav_phase_struct@@V?$_Uhash_compare@V?$basic_string@DU?$char_traits@D@std@@V?$allocator@D@2@@std@@U?$hash@V?$basic_string@DU?$char_traits@D@std@@V?$allocator@D@2@@std@@@2@U?$equal_to@V?$basic_string@DU?$char_traits@D@std@@V?$allocator@D@2@@std@@@2@@2@V?$allocator@U?$pair@$$CBV?$basic_string@DU?$char_traits@D@std@@V?$allocator@D@2@@std@@PEAUecl_grav_phase_struct@@@std@@@2@$0A@@std@@@std@@IEBA?AU?$_Hash_find_last_result@PEAU?$_List_node@U?$pair@$$CBV?$basic_string@DU?$char_traits@D@std@@V?$allocator@D@2@@std@@PEAUecl_grav_phase_struct@@@std@@PEAX@std@@@1@AEBV?$basic_string@DU?$char_traits@D@std@@V?$allocator@D@2@@1@_K@Z
	??$_Find_last@V?$basic_string@DU?$char_traits@D@std@@V?$allocator@D@2@@std@@@?$_Hash@V?$_Umap_traits@V?$basic_string@DU?$char_traits@D@std@@V?$allocator@D@2@@std@@PEAUecl_grav_survey_struct@@V?$_Uhash_compare@V?$basic_string@DU?$char_traits@D@std@@V?$allocator@D@2@@std@@U?$hash@V?$basic_string@DU?$char_traits@D@std@@V?$allocator@D@2@@std@@@2@U?$equal_to@V?$basic_string@DU?$char_traits@D@std@@V?$allocator@D@2@@std@@@2@@2@V?$allocator@U?$pair@$$CBV?$basic_string@DU?$char_traits@D@std@@V?$allocator@D@2@@std@@PEAUecl_grav_survey_struct@@@std@@@2@$0A@@std@@@std@@IEBA?AU?$_Hash_find_last_result@PEAU?$_List_node@U?$pair@$$CBV?$basic_string@DU?$char_traits@D@std@@V?$allocator@D@2@@std@@PEAUecl_grav_survey_struct@@@std@@PEAX@std@@@1@AEBV?$basic_string@DU?$char_traits@D@std@@V?$allocator@D@2@@1@_K@Z
	??$_Find_last@V?$basic_string@DU?$char_traits@D@std@@V?$allocator@D@2@@std@@@?$_Hash@V?$_Umap_traits@V?$basic_string@DU?$char_traits@D@std@@V?$allocator@D@2@@std@@PEAUecl_grid_struct@@V?$_Uhash_compare@V?$basic_string@DU?$char_traits@D@std@@V?$allocator@D@2@@std@@U?$hash@V?$basic_string@DU?$char_traits@D@std@@V?$allocator@D@2@@std@@@2@U?$equal_to@V?$basic_string@DU?$char_traits@D@std@@V?$allocator@D@2@@std@@@2@@2@V?$allocator@U?$pair@$$CBV?$basic_string@DU?$char_traits@D@std@@V?$allocator@D@2@@std@@PEAUecl_grid_struct@@@std@@@2@$0A@@std@@@std@@IEBA?AU?$_Hash_find_last_result@PEAU?$_List_node@U?$pair@$$CBV?$basic_string@DU?$char_traits@D@std@@V?$allocator@D@2@@std@@PEAUecl_grid_struct@@@std@@PEAX@std@@@1@AEBV?$basic_string@DU?$char_traits@D@std@@V?$allocator@D@2@@1@_K@Z
	??$_Find_last@V?$basic_string@DU?$char_traits@D@std@@V?$allocator@D@2@@std@@@?$_Hash@V?$_Umap_traits@V?$basic_string@DU?$char_traits@D@std@@V?$allocator@D@2@@std@@V?$vector@NV?$allocator@N@std@@@2@V?$_Uhash_compare@V?$basic_string@DU?$char_traits@D@std@@V?$allocator@D@2@@std@@U?$hash@V?$basic_string@DU?$char_traits@D@std@@V?$allocator@D@2@@std@@@2@U?$equal_to@V?$basic_string@DU?$char_traits@D@std@@V?$allocator@D@2@@std@@@2@@2@V?$allocator@U?$pair@$$CBV?$basic_string@DU?$char_traits@D@std@@V?$allocator@D@2@@std@@V?$vector@NV?$allocator@N@std@@@2@@std@@@2@$0A@@std@@@std@@IEBA?AU?$_Hash_find_last_result@PEAU?$_List_node@U?$pair@$$CBV?$basic_string@DU?$char_traits@D@std@@V?$allocator@D@2@@std@@V?$vector@NV?$allocator@N@std@@@2@@std@@PEAX@std@@@1@AEBV?$basic_string@DU?$char_traits@D@std@@V?$allocator@D@2@@1@_K@Z
	??$_Find_last@V?$basic_string@DU?$char_traits@D@std@@V?$allocator@D@2@@std@@@?$_Hash@V?$_Umap_traits@V?$basic_string@DU?$char_traits@D@std@@V?$allocator@D@2@@std@@VSourceFile@backward@@V?$_Uhash_compare@V?$basic_string@DU?$char_traits@D@std@@V?$allocator@D@2@@std@@U?$hash@V?$basic_string@DU?$char_traits@D@std@@V?$allocator@D@2@@std@@@2@U?$equal_to@V?$basic_string@DU?$char_traits@D@std@@V?$allocator@D@2@@std@@@2@@2@V?$allocator@U?$pair@$$CBV?$basic_string@DU?$char_traits@D@std@@V?$allocator@D@2@@std@@VSourceFile@backward@@@std@@@2@$0A@@std@@@std@@IEBA?AU?$_Hash_find_last_result@PEAU?$_List_node@U?$pair@$$CBV?$basic_string@DU?$char_traits@D@std@@V?$allocator@D@2@@std@@VSourceFile@backward@@@std@@PEAX@std@@@1@AEBV?$basic_string@DU?$char_traits@D@std@@V?$allocator@D@2@@1@_K@Z
	??$_Find_lower_bound@V?$basic_string@DU?$char_traits@D@std@@V?$allocator@D@2@@std@@@?$_Tree@V?$_Tmap_traits@V?$basic_string@DU?$char_traits@D@std@@V?$allocator@D@2@@std@@PEAUwell_conn_collection_struct@@U?$less@V?$basic_string@DU?$char_traits@D@std@@V?$allocator@D@2@@std@@@2@V?$allocator@U?$pair@$$CBV?$basic_string@DU?$char_traits@D@std@@V?$allocator@D@2@@std@@PEAUwell_conn_collection_struct@@@std@@@2@$0A@@std@@@std@@IEBA?AU?$_Tree_find_result@PEAU?$_Tree_node@U?$pair@$$CBV?$basic_string@DU?$char_traits@D@std@@V?$allocator@D@2@@std@@PEAUwell_conn_collection_struct@@@std@@PEAX@std@@@1@AEBV?$basic_string@DU?$char_traits@D@std@@V?$allocator@D@2@@1@@Z
	??$_Find_lower_bound@V?$basic_string@DU?$char_traits@D@std@@V?$allocator@D@2@@std@@@?$_Tree@V?$_Tmap_traits@V?$basic_string@DU?$char_traits@D@std@@V?$allocator@D@2@@std@@PEBVsmspec_node@ecl@@U?$less@V?$basic_string@DU?$char_traits@D@std@@V?$allocator@D@2@@std@@@2@V?$allocator@U?$pair@$$CBV?$basic_string@DU?$char_traits@D@std@@V?$allocator@D@2@@std@@PEBVsmspec_node@ecl@@@std@@@2@$0A@@std@@@std@@IEBA?AU?$_Tree_find_result@PEAU?$_Tree_node@U?$pair@$$CBV?$basic_string@DU?$char_traits@D@std@@V?$allocator@D@2@@std@@PEBVsmspec_node@ecl@@@std@@PEAX@std@@@1@AEBV?$basic_string@DU?$char_traits@D@std@@V?$allocator@D@2@@1@@Z
	??$_Find_lower_bound@V?$basic_string@DU?$char_traits@D@std@@V?$allocator@D@2@@std@@@?$_Tree@V?$_Tmap_traits@V?$basic_string@DU?$char_traits@D@std@@V?$allocator@D@2@@std@@V?$map@V?$basic_string@DU?$char_traits@D@std@@V?$allocator@D@2@@std@@PEBVsmspec_node@ecl@@U?$less@V?$basic_string@DU?$char_traits@D@std@@V?$allocator@D@2@@std@@@2@V?$allocator@U?$pair@$$CBV?$basic_string@DU?$char_traits@D@std@@V?$allocator@D@2@@std@@PEBVsmspec_node@ecl@@@std@@@2@@2@U?$less@V?$basic_string@DU?$char_traits@D@std@@V?$allocator@D@2@@std@@@2@V?$allocator@U?$pair@$$CBV?$basic_string@DU?$char_traits@D@std@@V?$allocator@D@2@@std@@V?$map@V?$basic_string@DU?$char_traits@D@std@@V?$allocator@D@2@@std@@PEBVsmspec_node@ecl@@U?$less@V?$basic_string@DU?$char_traits@D@std@@V?$allocator@D@2@@std@@@2@V?$allocator@U?$pair@$$CBV?$basic_string@DU?$char_traits@D@std@@V?$allocator@D@2@@std@@PEBVsmspec_node@ecl@@@std@@@2@@2@@std@@@2@$0A@@std@@@std@@IEBA?AU?$_Tree_find_result@PEAU?$_Tree_node@U?$pair@$$CBV?$basic_string@DU?$char_traits@D@std@@V?$allocator@D@2@@std@@V?$map@V?$basic_string@DU?$char_traits@D@std@@V?$allocator@D@2@@std@@PEBVsmspec_node@ecl@@U?$less@V?$basic_string@DU?$char_traits@D@std@@V?$allocator@D@2@@std@@@2@V?$allocator@U?$pair@$$CBV?$basic_string@DU?$char_traits@D@std@@V?$allocator@D@2@@std@@PEBVsmspec_node@ecl@@@std@@@2@@2@@std@@PEAX@std@@@1@AEBV?$basic_string@DU?$char_traits@D@std@@V?$allocator@D@2@@1@@Z
	??$_Find_lower_bound@V?$basic_string@DU?$char_traits@D@std@@V?$allocator@D@2@@std@@@?$_Tree@V?$_Tmap_traits@V?$basic_string@DU?$char_traits@D@std@@V?$allocator@D@2@@std@@V?$vector@HV?$allocator@H@std@@@2@U?$less@V?$basic_string@DU?$char_traits@D@std@@V?$allocator@D@2@@std@@@2@V?$allocator@U?$pair@$$CBV?$basic_string@DU?$char_traits@D@std@@V?$allocator@D@2@@std@@V?$vector@HV?$allocator@H@std@@@2@@std@@@2@$0A@@std@@@std@@IEBA?AU?$_Tree_find_result@PEAU?$_Tree_node@U?$pair@$$CBV?$basic_string@DU?$char_traits@D@std@@V?$allocator@D@2@@std@@V?$vector@HV?$allocator@H@std@@@2@@std@@PEAX@std@@@1@AEBV?$basic_string@DU?$char_traits@D@std@@V?$allocator@D@2@@1@@Z
	??$_Find_lower_bound@V?$basic_string@DU?$char_traits@D@std@@V?$allocator@D@2@@std@@@?$_Tree@V?$_Tset_traits@V?$basic_string@DU?$char_traits@D@std@@V?$allocator@D@2@@std@@U?$less@V?$basic_string@DU?$char_traits@D@std@@V?$allocator@D@2@@std@@@2@V?$allocator@V?$basic_string@DU?$char_traits@D@std@@V?$allocator@D@2@@std@@@2@$0A@@std@@@std@@IEBA?AU?$_Tree_find_result@PEAU?$_Tree_node@V?$basic_string@DU?$char_traits@D@std@@V?$allocator@D@2@@std@@PEAX@std@@@1@AEBV?$basic_string@DU?$char_traits@D@std@@V?$allocator@D@2@@1@@Z
	??$_Free_non_head@V?$allocator@U?$_List_node@U?$pair@$$CBV?$basic_string@DU?$char_traits@D@std@@V?$allocator@D@2@@std@@N@std@@PEAX@std@@@std@@@?$_List_node@U?$pair@$$CBV?$basic_string@DU?$char_traits@D@std@@V?$allocator@D@2@@std@@N@std@@PEAX@std@@SAXAEAV?$allocator@U?$_List_node@U?$pair@$$CBV?$basic_string@DU?$char_traits@D@std@@V?$allocator@D@2@@std@@N@std@@PEAX@std@@@1@PEAU01@@Z
	??$_Free_non_head@V?$allocator@U?$_List_node@U?$pair@$$CBV?$basic_string@DU?$char_traits@D@std@@V?$allocator@D@2@@std@@PEAUecl_grav_phase_struct@@@std@@PEAX@std@@@std@@@?$_List_node@U?$pair@$$CBV?$basic_string@DU?$char_traits@D@std@@V?$allocator@D@2@@std@@PEAUecl_grav_phase_struct@@@std@@PEAX@std@@SAXAEAV?$allocator@U?$_List_node@U?$pair@$$CBV?$basic_string@DU?$char_traits@D@std@@V?$allocator@D@2@@std@@PEAUecl_grav_phase_struct@@@std@@PEAX@std@@@1@PEAU01@@Z
	??$_Free_non_head@V?$allocator@U?$_List_node@U?$pair@$$CBV?$basic_string@DU?$char_traits@D@std@@V?$allocator@D@2@@std@@PEAUecl_grav_survey_struct@@@std@@PEAX@std@@@std@@@?$_List_node@U?$pair@$$CBV?$basic_string@DU?$char_traits@D@std@@V?$allocator@D@2@@std@@PEAUecl_grav_survey_struct@@@std@@PEAX@std@@SAXAEAV?$allocator@U?$_List_node@U?$pair@$$CBV?$basic_string@DU?$char_traits@D@std@@V?$allocator@D@2@@std@@PEAUecl_grav_survey_struct@@@std@@PEAX@std@@@1@PEAU01@@Z
	??$_Free_non_head@V?$allocator@U?$_List_node@U?$pair@$$CBV?$basic_string@DU?$char_traits@D@std@@V?$allocator@D@2@@std@@PEAUecl_grid_struct@@@std@@PEAX@std@@@std@@@?$_List_node@U?$pair@$$CBV?$basic_string@DU?$char_traits@D@std@@V?$allocator@D@2@@std@@PEAUecl_grid_struct@@@std@@PEAX@std@@SAXAEAV?$allocator@U?$_List_node@U?$pair@$$CBV?$basic_string@DU?$char_traits@D@std@@V?$allocator@D@2@@std@@PEAUecl_grid_struct@@@std@@PEAX@std@@@1@PEAU01@@Z
	??$_Getvals@_W@?$time_get@DV?$istreambuf_iterator@DU?$char_traits@D@std@@@std@@@std@@IEAAX_WAEBV_Locinfo@1@@Z
	??$_Getvals@_W@?$time_get@_WV?$istreambuf_iterator@_WU?$char_traits@_W@std@@@std@@@std@@IEAAX_WAEBV_Locinfo@1@@Z
	??$_Hash_array_representation@D@std@@YA_KQEBD_K@Z
	??$_Insert_string@DU?$char_traits@D@std@@_K@std@@YAAEAV?$basic_ostream@DU?$char_traits@D@std@@@0@AEAV10@QEBD_K@Z
	??$_Integral_to_string@DH@std@@YA?AV?$basic_string@DU?$char_traits@D@std@@V?$allocator@D@2@@0@H@Z
	??$_Is_all_bits_zero@H@std@@YA_NAEBH@Z
	??$_Is_all_bits_zero@I@std@@YA_NAEBI@Z
	??$_Is_all_bits_zero@M@std@@YA_NAEBM@Z
	??$_Is_all_bits_zero@N@std@@YA_NAEBN@Z
	??$_Is_all_bits_zero@PEAUwell_conn_struct@@@std@@YA_NAEBQEAUwell_conn_struct@@@Z
	??$_Is_all_bits_zero@_J@std@@YA_NAEB_J@Z
	??$_Make_heap_unchecked@PEAUecl_nnc_pair_struct@@P6A_NAEBU1@0@Z@std@@YAXPEAUecl_nnc_pair_struct@@0P6A_NAEBU1@1@Z@Z
	??$_Maklocstr@D@std@@YAPEADPEBDPEADAEBU_Cvtvec@@@Z
	??$_Med3_unchecked@PEAPEAUecl_rft_node_struct@@P6A_NPEBU1@0@Z@std@@YAXPEAPEAUecl_rft_node_struct@@00P6A_NPEBU1@1@Z@Z
	??$_Med3_unchecked@PEAPEAUwell_node_type@@P6A_NPEBU1@0@Z@std@@YAXPEAPEAUwell_node_type@@00P6A_NPEBU1@1@Z@Z
	??$_Med3_unchecked@PEAUecl_nnc_pair_struct@@P6A_NAEBU1@0@Z@std@@YAXPEAUecl_nnc_pair_struct@@00P6A_NAEBU1@1@Z@Z
	??$_Memcmp_ranges@PEBHPEBH@std@@YAHPEBH00@Z
	??$_Partition_by_median_guess_unchecked@PEAPEAUecl_rft_node_struct@@P6A_NPEBU1@0@Z@std@@YA?AU?$pair@PEAPEAUecl_rft_node_struct@@PEAPEAU1@@0@PEAPEAUecl_rft_node_struct@@0P6A_NPEBU2@1@Z@Z
	??$_Partition_by_median_guess_unchecked@PEAPEAUwell_node_type@@P6A_NPEBU1@0@Z@std@@YA?AU?$pair@PEAPEAUwell_node_type@@PEAPEAU1@@0@PEAPEAUwell_node_type@@0P6A_NPEBU2@1@Z@Z
	??$_Partition_by_median_guess_unchecked@PEAUecl_nnc_pair_struct@@P6A_NAEBU1@0@Z@std@@YA?AU?$pair@PEAUecl_nnc_pair_struct@@PEAU1@@0@PEAUecl_nnc_pair_struct@@0P6A_NAEBU2@1@Z@Z
	??$_Pop_heap_hole_by_index@PEAUecl_nnc_pair_struct@@U1@P6A_NAEBU1@0@Z@std@@YAXPEAUecl_nnc_pair_struct@@_J1$$QEAU1@P6A_NAEBU1@3@Z@Z
	??$_Reallocate_grow_by@V<lambda_319d5e083f45f90dcdce5dce53cbb275>@@D@?$basic_string@DU?$char_traits@D@std@@V?$allocator@D@2@@std@@AEAAAEAV01@_KV<lambda_319d5e083f45f90dcdce5dce53cbb275>@@D@Z
	??$_Reallocate_grow_by@V<lambda_65e615be2a453ca0576c979606f46740>@@PEBD_K@?$basic_string@DU?$char_traits@D@std@@V?$allocator@D@2@@std@@AEAAAEAV01@_KV<lambda_65e615be2a453ca0576c979606f46740>@@PEBD_K@Z
	??$_Reallocate_grow_by@V<lambda_e1befb086ad3257e3f042a63030725f7>@@_KD@?$basic_string@DU?$char_traits@D@std@@V?$allocator@D@2@@std@@AEAAAEAV01@_KV<lambda_e1befb086ad3257e3f042a63030725f7>@@_KD@Z
	??$_Reallocate_grow_by@V<lambda_f3a66ab6a0570788f31503db83886f49>@@_KPEBD_K@?$basic_string@DU?$char_traits@D@std@@V?$allocator@D@2@@std@@AEAAAEAV01@_KV<lambda_f3a66ab6a0570788f31503db83886f49>@@_KPEBD2@Z
	??$_Resize_reallocate@H@?$vector@HV?$allocator@H@std@@@std@@AEAAX_KAEBH@Z
	??$_Resize_reallocate@I@?$vector@IV?$allocator@I@std@@@std@@AEAAX_KAEBI@Z
	??$_Resize_reallocate@M@?$vector@MV?$allocator@M@std@@@std@@AEAAX_KAEBM@Z
	??$_Resize_reallocate@N@?$vector@NV?$allocator@N@std@@@std@@AEAAX_KAEBN@Z
	??$_Resize_reallocate@PEAUwell_conn_struct@@@?$vector@PEAUwell_conn_struct@@V?$allocator@PEAUwell_conn_struct@@@std@@@std@@AEAAX_KAEBQEAUwell_conn_struct@@@Z
	??$_Resize_reallocate@U?$pair@HH@std@@@?$vector@U?$pair@HH@std@@V?$allocator@U?$pair@HH@std@@@2@@std@@AEAAX_KAEBU?$pair@HH@1@@Z
	??$_Resize_reallocate@U_Value_init_tag@std@@@?$vector@MV?$allocator@M@std@@@std@@AEAAX_KAEBU_Value_init_tag@1@@Z
	??$_Resize_reallocate@U_Value_init_tag@std@@@?$vector@NV?$allocator@N@std@@@std@@AEAAX_KAEBU_Value_init_tag@1@@Z
	??$_Resize_reallocate@U_Value_init_tag@std@@@?$vector@PEAUHINSTANCE__@@V?$allocator@PEAUHINSTANCE__@@@std@@@std@@AEAAX_KAEBU_Value_init_tag@1@@Z
	??$_Resize_reallocate@U_Value_init_tag@std@@@?$vector@_JV?$allocator@_J@std@@@std@@AEAAX_KAEBU_Value_init_tag@1@@Z
	??$_Sort_unchecked@PEAPEAUecl_rft_node_struct@@P6A_NPEBU1@0@Z@std@@YAXPEAPEAUecl_rft_node_struct@@0_JP6A_NPEBU1@2@Z@Z
	??$_Sort_unchecked@PEAPEAUwell_node_type@@P6A_NPEBU1@0@Z@std@@YAXPEAPEAUwell_node_type@@0_JP6A_NPEBU1@2@Z@Z
	??$_Sort_unchecked@PEAUecl_nnc_pair_struct@@P6A_NAEBU1@0@Z@std@@YAXPEAUecl_nnc_pair_struct@@0_JP6A_NAEBU1@2@Z@Z
	??$_Try_emplace@AEBV?$basic_string@DU?$char_traits@D@std@@V?$allocator@D@2@@std@@$$V@?$_Hash@V?$_Umap_traits@V?$basic_string@DU?$char_traits@D@std@@V?$allocator@D@2@@std@@VSourceFile@backward@@V?$_Uhash_compare@V?$basic_string@DU?$char_traits@D@std@@V?$allocator@D@2@@std@@U?$hash@V?$basic_string@DU?$char_traits@D@std@@V?$allocator@D@2@@std@@@2@U?$equal_to@V?$basic_string@DU?$char_traits@D@std@@V?$allocator@D@2@@std@@@2@@2@V?$allocator@U?$pair@$$CBV?$basic_string@DU?$char_traits@D@std@@V?$allocator@D@2@@std@@VSourceFile@backward@@@std@@@2@$0A@@std@@@std@@IEAA?AU?$pair@PEAU?$_List_node@U?$pair@$$CBV?$basic_string@DU?$char_traits@D@std@@V?$allocator@D@2@@std@@VSourceFile@backward@@@std@@PEAX@std@@_N@1@AEBV?$basic_string@DU?$char_traits@D@std@@V?$allocator@D@2@@1@@Z
	??$_Try_emplace@V?$basic_string@DU?$char_traits@D@std@@V?$allocator@D@2@@std@@$$V@?$_Hash@V?$_Umap_traits@V?$basic_string@DU?$char_traits@D@std@@V?$allocator@D@2@@std@@NV?$_Uhash_compare@V?$basic_string@DU?$char_traits@D@std@@V?$allocator@D@2@@std@@U?$hash@V?$basic_string@DU?$char_traits@D@std@@V?$allocator@D@2@@std@@@2@U?$equal_to@V?$basic_string@DU?$char_traits@D@std@@V?$allocator@D@2@@std@@@2@@2@V?$allocator@U?$pair@$$CBV?$basic_string@DU?$char_traits@D@std@@V?$allocator@D@2@@std@@N@std@@@2@$0A@@std@@@std@@IEAA?AU?$pair@PEAU?$_List_node@U?$pair@$$CBV?$basic_string@DU?$char_traits@D@std@@V?$allocator@D@2@@std@@N@std@@PEAX@std@@_N@1@$$QEAV?$basic_string@DU?$char_traits@D@std@@V?$allocator@D@2@@1@@Z
	??$_Try_emplace@V?$basic_string@DU?$char_traits@D@std@@V?$allocator@D@2@@std@@$$V@?$_Hash@V?$_Umap_traits@V?$basic_string@DU?$char_traits@D@std@@V?$allocator@D@2@@std@@PEAUecl_grav_phase_struct@@V?$_Uhash_compare@V?$basic_string@DU?$char_traits@D@std@@V?$allocator@D@2@@std@@U?$hash@V?$basic_string@DU?$char_traits@D@std@@V?$allocator@D@2@@std@@@2@U?$equal_to@V?$basic_string@DU?$char_traits@D@std@@V?$allocator@D@2@@std@@@2@@2@V?$allocator@U?$pair@$$CBV?$basic_string@DU?$char_traits@D@std@@V?$allocator@D@2@@std@@PEAUecl_grav_phase_struct@@@std@@@2@$0A@@std@@@std@@IEAA?AU?$pair@PEAU?$_List_node@U?$pair@$$CBV?$basic_string@DU?$char_traits@D@std@@V?$allocator@D@2@@std@@PEAUecl_grav_phase_struct@@@std@@PEAX@std@@_N@1@$$QEAV?$basic_string@DU?$char_traits@D@std@@V?$allocator@D@2@@1@@Z
	??$_Try_emplace@V?$basic_string@DU?$char_traits@D@std@@V?$allocator@D@2@@std@@$$V@?$_Hash@V?$_Umap_traits@V?$basic_string@DU?$char_traits@D@std@@V?$allocator@D@2@@std@@PEAUecl_grav_survey_struct@@V?$_Uhash_compare@V?$basic_string@DU?$char_traits@D@std@@V?$allocator@D@2@@std@@U?$hash@V?$basic_string@DU?$char_traits@D@std@@V?$allocator@D@2@@std@@@2@U?$equal_to@V?$basic_string@DU?$char_traits@D@std@@V?$allocator@D@2@@std@@@2@@2@V?$allocator@U?$pair@$$CBV?$basic_string@DU?$char_traits@D@std@@V?$allocator@D@2@@std@@PEAUecl_grav_survey_struct@@@std@@@2@$0A@@std@@@std@@IEAA?AU?$pair@PEAU?$_List_node@U?$pair@$$CBV?$basic_string@DU?$char_traits@D@std@@V?$allocator@D@2@@std@@PEAUecl_grav_survey_struct@@@std@@PEAX@std@@_N@1@$$QEAV?$basic_string@DU?$char_traits@D@std@@V?$allocator@D@2@@1@@Z
	??$_Try_emplace@V?$basic_string@DU?$char_traits@D@std@@V?$allocator@D@2@@std@@$$V@?$_Hash@V?$_Umap_traits@V?$basic_string@DU?$char_traits@D@std@@V?$allocator@D@2@@std@@PEAUecl_grid_struct@@V?$_Uhash_compare@V?$basic_string@DU?$char_traits@D@std@@V?$allocator@D@2@@std@@U?$hash@V?$basic_string@DU?$char_traits@D@std@@V?$allocator@D@2@@std@@@2@U?$equal_to@V?$basic_string@DU?$char_traits@D@std@@V?$allocator@D@2@@std@@@2@@2@V?$allocator@U?$pair@$$CBV?$basic_string@DU?$char_traits@D@std@@V?$allocator@D@2@@std@@PEAUecl_grid_struct@@@std@@@2@$0A@@std@@@std@@IEAA?AU?$pair@PEAU?$_List_node@U?$pair@$$CBV?$basic_string@DU?$char_traits@D@std@@V?$allocator@D@2@@std@@PEAUecl_grid_struct@@@std@@PEAX@std@@_N@1@$$QEAV?$basic_string@DU?$char_traits@D@std@@V?$allocator@D@2@@1@@Z
	??$_Try_emplace@V?$basic_string@DU?$char_traits@D@std@@V?$allocator@D@2@@std@@$$V@?$_Hash@V?$_Umap_traits@V?$basic_string@DU?$char_traits@D@std@@V?$allocator@D@2@@std@@V?$vector@NV?$allocator@N@std@@@2@V?$_Uhash_compare@V?$basic_string@DU?$char_traits@D@std@@V?$allocator@D@2@@std@@U?$hash@V?$basic_string@DU?$char_traits@D@std@@V?$allocator@D@2@@std@@@2@U?$equal_to@V?$basic_string@DU?$char_traits@D@std@@V?$allocator@D@2@@std@@@2@@2@V?$allocator@U?$pair@$$CBV?$basic_string@DU?$char_traits@D@std@@V?$allocator@D@2@@std@@V?$vector@NV?$allocator@N@std@@@2@@std@@@2@$0A@@std@@@std@@IEAA?AU?$pair@PEAU?$_List_node@U?$pair@$$CBV?$basic_string@DU?$char_traits@D@std@@V?$allocator@D@2@@std@@V?$vector@NV?$allocator@N@std@@@2@@std@@PEAX@std@@_N@1@$$QEAV?$basic_string@DU?$char_traits@D@std@@V?$allocator@D@2@@1@@Z
	??$_UIntegral_to_buff@DI@std@@YAPEADPEADI@Z
	??$_Uninitialized_fill_n@V?$allocator@M@std@@@std@@YAPEAMPEAM_KAEBMAEAV?$allocator@M@0@@Z
	??$_Uninitialized_fill_n@V?$allocator@N@std@@@std@@YAPEANPEAN_KAEBNAEAV?$allocator@N@0@@Z
	??$_Uninitialized_move@PEAU?$pair@IV?$basic_string@DU?$char_traits@D@std@@V?$allocator@D@2@@std@@@std@@V?$allocator@U?$pair@IV?$basic_string@DU?$char_traits@D@std@@V?$allocator@D@2@@std@@@std@@@2@@std@@YAPEAU?$pair@IV?$basic_string@DU?$char_traits@D@std@@V?$allocator@D@2@@std@@@0@QEAU10@0PEAU10@AEAV?$allocator@U?$pair@IV?$basic_string@DU?$char_traits@D@std@@V?$allocator@D@2@@std@@@std@@@0@@Z
	??$_Uninitialized_move@PEAUmodule_data@backward@@V?$allocator@Umodule_data@backward@@@std@@@std@@YAPEAUmodule_data@backward@@QEAU12@0PEAU12@AEAV?$allocator@Umodule_data@backward@@@0@@Z
	??$_Uninitialized_move@PEAV?$basic_string@DU?$char_traits@D@std@@V?$allocator@D@2@@std@@V?$allocator@V?$basic_string@DU?$char_traits@D@std@@V?$allocator@D@2@@std@@@2@@std@@YAPEAV?$basic_string@DU?$char_traits@D@std@@V?$allocator@D@2@@0@QEAV10@0PEAV10@AEAV?$allocator@V?$basic_string@DU?$char_traits@D@std@@V?$allocator@D@2@@std@@@0@@Z
	??$_Zero_range@PEAM@std@@YAPEAMQEAM0@Z
	??$_Zero_range@PEAN@std@@YAPEANQEAN0@Z
	??$_Zero_range@PEAPEAUHINSTANCE__@@@std@@YAPEAPEAUHINSTANCE__@@QEAPEAU1@0@Z
	??$_Zero_range@PEA_J@std@@YAPEA_JQEA_J0@Z
	??$fill@PEAV?$_List_unchecked_iterator@V?$_List_val@U?$_List_simple_types@U?$pair@$$CBV?$basic_string@DU?$char_traits@D@std@@V?$allocator@D@2@@std@@N@std@@@std@@@std@@@std@@V12@@std@@YAXQEAV?$_List_unchecked_iterator@V?$_List_val@U?$_List_simple_types@U?$pair@$$CBV?$basic_string@DU?$char_traits@D@std@@V?$allocator@D@2@@std@@N@std@@@std@@@std@@@0@0AEBV10@@Z
	??$fill@PEAV?$_List_unchecked_iterator@V?$_List_val@U?$_List_simple_types@U?$pair@$$CBV?$basic_string@DU?$char_traits@D@std@@V?$allocator@D@2@@std@@PEAUecl_grav_phase_struct@@@std@@@std@@@std@@@std@@V12@@std@@YAXQEAV?$_List_unchecked_iterator@V?$_List_val@U?$_List_simple_types@U?$pair@$$CBV?$basic_string@DU?$char_traits@D@std@@V?$allocator@D@2@@std@@PEAUecl_grav_phase_struct@@@std@@@std@@@std@@@0@0AEBV10@@Z
	??$fill@PEAV?$_List_unchecked_iterator@V?$_List_val@U?$_List_simple_types@U?$pair@$$CBV?$basic_string@DU?$char_traits@D@std@@V?$allocator@D@2@@std@@PEAUecl_grav_survey_struct@@@std@@@std@@@std@@@std@@V12@@std@@YAXQEAV?$_List_unchecked_iterator@V?$_List_val@U?$_List_simple_types@U?$pair@$$CBV?$basic_string@DU?$char_traits@D@std@@V?$allocator@D@2@@std@@PEAUecl_grav_survey_struct@@@std@@@std@@@std@@@0@0AEBV10@@Z
	??$fill@PEAV?$_List_unchecked_iterator@V?$_List_val@U?$_List_simple_types@U?$pair@$$CBV?$basic_string@DU?$char_traits@D@std@@V?$allocator@D@2@@std@@PEAUecl_grid_struct@@@std@@@std@@@std@@@std@@V12@@std@@YAXQEAV?$_List_unchecked_iterator@V?$_List_val@U?$_List_simple_types@U?$pair@$$CBV?$basic_string@DU?$char_traits@D@std@@V?$allocator@D@2@@std@@PEAUecl_grid_struct@@@std@@@std@@@std@@@0@0AEBV10@@Z
	??$fill@PEAV?$_List_unchecked_iterator@V?$_List_val@U?$_List_simple_types@U?$pair@$$CBV?$basic_string@DU?$char_traits@D@std@@V?$allocator@D@2@@std@@V?$vector@NV?$allocator@N@std@@@2@@std@@@std@@@std@@@std@@V12@@std@@YAXQEAV?$_List_unchecked_iterator@V?$_List_val@U?$_List_simple_types@U?$pair@$$CBV?$basic_string@DU?$char_traits@D@std@@V?$allocator@D@2@@std@@V?$vector@NV?$allocator@N@std@@@2@@std@@@std@@@std@@@0@0AEBV10@@Z
	??$fill@PEAV?$_List_unchecked_iterator@V?$_List_val@U?$_List_simple_types@U?$pair@$$CBV?$basic_string@DU?$char_traits@D@std@@V?$allocator@D@2@@std@@VSourceFile@backward@@@std@@@std@@@std@@@std@@V12@@std@@YAXQEAV?$_List_unchecked_iterator@V?$_List_val@U?$_List_simple_types@U?$pair@$$CBV?$basic_string@DU?$char_traits@D@std@@V?$allocator@D@2@@std@@VSourceFile@backward@@@std@@@std@@@std@@@0@0AEBV10@@Z
	??$getline@DU?$char_traits@D@std@@V?$allocator@D@2@@std@@YAAEAV?$basic_istream@DU?$char_traits@D@std@@@0@$$QEAV10@AEAV?$basic_string@DU?$char_traits@D@std@@V?$allocator@D@2@@0@D@Z
	??$getline@DU?$char_traits@D@std@@V?$allocator@D@2@@std@@YAAEAV?$basic_istream@DU?$char_traits@D@std@@@0@AEAV10@AEAV?$basic_string@DU?$char_traits@D@std@@V?$allocator@D@2@@0@@Z
	??$print@AEAPEBDAEAPEBDAEAHAEAY0BAAA@D@v8@fmt@@YAXPEAU_iobuf@@V?$basic_format_string@DAEAPEBDAEAPEBDAEAHAEAY0BAAA@D@01@AEAPEBD2AEAHAEAY0BAAA@D@Z
	??$print@V?$basic_string@DU?$char_traits@D@std@@V?$allocator@D@2@@std@@@v8@fmt@@YAXPEAU_iobuf@@V?$basic_format_string@DV?$basic_string@DU?$char_traits@D@std@@V?$allocator@D@2@@std@@@01@$$QEAV?$basic_string@DU?$char_traits@D@std@@V?$allocator@D@2@@std@@@Z
	??$print_stacktrace@VStackTrace@backward@@@Printer@backward@@AEAAXAEAVStackTrace@1@AEAV?$basic_ostream@DU?$char_traits@D@std@@@std@@AEAVColorize@1@@Z
	??$transform@V?$_Vector_iterator@V?$_Vector_val@U?$_Simple_types@PEAUHINSTANCE__@@@std@@@std@@@std@@V?$back_insert_iterator@V?$vector@Umodule_data@backward@@V?$allocator@Umodule_data@backward@@@std@@@std@@@2@Vget_mod_info@backward@@@std@@YA?AV?$back_insert_iterator@V?$vector@Umodule_data@backward@@V?$allocator@Umodule_data@backward@@@std@@@std@@@0@V?$_Vector_iterator@V?$_Vector_val@U?$_Simple_types@PEAUHINSTANCE__@@@std@@@std@@@0@0V10@Vget_mod_info@backward@@@Z
	??$uninitialized_fill@PEAV?$_List_unchecked_iterator@V?$_List_val@U?$_List_simple_types@U?$pair@$$CBV?$basic_string@DU?$char_traits@D@std@@V?$allocator@D@2@@std@@N@std@@@std@@@std@@@std@@V12@@std@@YAXQEAV?$_List_unchecked_iterator@V?$_List_val@U?$_List_simple_types@U?$pair@$$CBV?$basic_string@DU?$char_traits@D@std@@V?$allocator@D@2@@std@@N@std@@@std@@@std@@@0@0AEBV10@@Z
	??$uninitialized_fill@PEAV?$_List_unchecked_iterator@V?$_List_val@U?$_List_simple_types@U?$pair@$$CBV?$basic_string@DU?$char_traits@D@std@@V?$allocator@D@2@@std@@PEAUecl_grav_phase_struct@@@std@@@std@@@std@@@std@@V12@@std@@YAXQEAV?$_List_unchecked_iterator@V?$_List_val@U?$_List_simple_types@U?$pair@$$CBV?$basic_string@DU?$char_traits@D@std@@V?$allocator@D@2@@std@@PEAUecl_grav_phase_struct@@@std@@@std@@@std@@@0@0AEBV10@@Z
	??$uninitialized_fill@PEAV?$_List_unchecked_iterator@V?$_List_val@U?$_List_simple_types@U?$pair@$$CBV?$basic_string@DU?$char_traits@D@std@@V?$allocator@D@2@@std@@PEAUecl_grav_survey_struct@@@std@@@std@@@std@@@std@@V12@@std@@YAXQEAV?$_List_unchecked_iterator@V?$_List_val@U?$_List_simple_types@U?$pair@$$CBV?$basic_string@DU?$char_traits@D@std@@V?$allocator@D@2@@std@@PEAUecl_grav_survey_struct@@@std@@@std@@@std@@@0@0AEBV10@@Z
	??$uninitialized_fill@PEAV?$_List_unchecked_iterator@V?$_List_val@U?$_List_simple_types@U?$pair@$$CBV?$basic_string@DU?$char_traits@D@std@@V?$allocator@D@2@@std@@PEAUecl_grid_struct@@@std@@@std@@@std@@@std@@V12@@std@@YAXQEAV?$_List_unchecked_iterator@V?$_List_val@U?$_List_simple_types@U?$pair@$$CBV?$basic_string@DU?$char_traits@D@std@@V?$allocator@D@2@@std@@PEAUecl_grid_struct@@@std@@@std@@@std@@@0@0AEBV10@@Z
	??$uninitialized_fill@PEAV?$_List_unchecked_iterator@V?$_List_val@U?$_List_simple_types@U?$pair@$$CBV?$basic_string@DU?$char_traits@D@std@@V?$allocator@D@2@@std@@V?$vector@NV?$allocator@N@std@@@2@@std@@@std@@@std@@@std@@V12@@std@@YAXQEAV?$_List_unchecked_iterator@V?$_List_val@U?$_List_simple_types@U?$pair@$$CBV?$basic_string@DU?$char_traits@D@std@@V?$allocator@D@2@@std@@V?$vector@NV?$allocator@N@std@@@2@@std@@@std@@@std@@@0@0AEBV10@@Z
	??$uninitialized_fill@PEAV?$_List_unchecked_iterator@V?$_List_val@U?$_List_simple_types@U?$pair@$$CBV?$basic_string@DU?$char_traits@D@std@@V?$allocator@D@2@@std@@VSourceFile@backward@@@std@@@std@@@std@@@std@@V12@@std@@YAXQEAV?$_List_unchecked_iterator@V?$_List_val@U?$_List_simple_types@U?$pair@$$CBV?$basic_string@DU?$char_traits@D@std@@V?$allocator@D@2@@std@@VSourceFile@backward@@@std@@@std@@@std@@@0@0AEBV10@@Z
	??$use_facet@V?$codecvt@DDU_Mbstatet@@@std@@@std@@YAAEBV?$codecvt@DDU_Mbstatet@@@0@AEBVlocale@0@@Z
	??$vector_util_fprintf@H@@YAXAEBV?$vector@HV?$allocator@H@std@@@std@@PEAU_iobuf@@PEBD2@Z
	??0?$TraceResolverImpl@Uwindows_tag@system_tag@backward@@@backward@@QEAA@XZ
	??0?$basic_ifstream@DU?$char_traits@D@std@@@std@@QEAA@PEBDHH@Z
	??0?$basic_string@DU?$char_traits@D@std@@V?$allocator@D@2@@std@@QEAA@AEBV01@@Z
	??0?$basic_string@DU?$char_traits@D@std@@V?$allocator@D@2@@std@@QEAA@QEBD@Z
	??0?$basic_string@DU?$char_traits@D@std@@V?$allocator@D@2@@std@@QEAA@U_String_constructor_concat_tag@1@AEAV01@1@Z
	??0?$basic_string@DU?$char_traits@D@std@@V?$allocator@D@2@@std@@QEAA@_KD@Z
	??0?$unordered_map@V?$basic_string@DU?$char_traits@D@std@@V?$allocator@D@2@@std@@PEAUecl_grid_struct@@U?$hash@V?$basic_string@DU?$char_traits@D@std@@V?$allocator@D@2@@std@@@2@U?$equal_to@V?$basic_string@DU?$char_traits@D@std@@V?$allocator@D@2@@std@@@2@V?$allocator@U?$pair@$$CBV?$basic_string@DU?$char_traits@D@std@@V?$allocator@D@2@@std@@PEAUecl_grid_struct@@@std@@@2@@std@@QEAA@XZ
	??0?$vector@NV?$allocator@N@std@@@std@@QEAA@_KAEBV?$allocator@N@1@@Z
	??0?$vector@V?$basic_string@DU?$char_traits@D@std@@V?$allocator@D@2@@std@@V?$allocator@V?$basic_string@DU?$char_traits@D@std@@V?$allocator@D@2@@std@@@2@@std@@QEAA@V?$initializer_list@V?$basic_string@DU?$char_traits@D@std@@V?$allocator@D@2@@std@@@1@AEBV?$allocator@V?$basic_string@DU?$char_traits@D@std@@V?$allocator@D@2@@std@@@1@@Z
	??0FortIO@ERT@@QEAA@AEBV?$basic_string@DU?$char_traits@D@std@@V?$allocator@D@2@@std@@H_N1@Z
	??0FortIO@ERT@@QEAA@XZ
	??0Printer@backward@@QEAA@XZ
	??0ResolvedTrace@backward@@QEAA@$$QEAU01@@Z
	??0SourceFile@backward@@QEAA@AEBV?$basic_string@DU?$char_traits@D@std@@V?$allocator@D@2@@std@@@Z
	??0bad_alloc@std@@QEAA@AEBV01@@Z
	??0bad_alloc@std@@QEAA@XZ
	??0bad_array_new_length@std@@QEAA@AEBV01@@Z
	??0bad_array_new_length@std@@QEAA@XZ
	??0bad_cast@std@@QEAA@AEBV01@@Z
	??0bad_cast@std@@QEAA@XZ
	??0ecl_box@ecl@@QEAA@PEBUecl_grid_struct@@HHHHHH@Z
	??0ecl_grav_struct@@QEAA@XZ
	??0ecl_grid_cache@ecl@@QEAA@PEBUecl_grid_struct@@@Z
	??0ecl_smspec_struct@@QEAA@XZ
	??0ecl_sum_file_data@ecl@@QEAA@PEBUecl_smspec_struct@@@Z
	??0exception@std@@QEAA@AEBV01@@Z
	??0invalid_argument@std@@QEAA@AEBV01@@Z
	??0invalid_argument@std@@QEAA@AEBV?$basic_string@DU?$char_traits@D@std@@V?$allocator@D@2@@1@@Z
	??0invalid_argument@std@@QEAA@PEBD@Z
	??0logic_error@std@@QEAA@AEBV01@@Z
	??0out_of_range@std@@QEAA@AEBV01@@Z
	??0out_of_range@std@@QEAA@AEBV?$basic_string@DU?$char_traits@D@std@@V?$allocator@D@2@@1@@Z
	??0out_of_range@std@@QEAA@PEBD@Z
	??0runtime_error@std@@QEAA@AEBV01@@Z
	??0runtime_error@std@@QEAA@PEBD@Z
	??0smspec_node@ecl@@QEAA@AEBV01@H@Z
	??0smspec_node@ecl@@QEAA@HPEBD000HHHM0@Z
	??0smspec_node@ecl@@QEAA@HPEBD00M0@Z
	??0smspec_node@ecl@@QEAA@HPEBD0H0M0@Z
	??0smspec_node@ecl@@QEAA@HPEBD0H0QEBHM0@Z
	??0smspec_node@ecl@@QEAA@HPEBD0M@Z
	??0smspec_node@ecl@@QEAA@HPEBDH0M0@Z
	??0smspec_node@ecl@@QEAA@HPEBDH0QEBHM0@Z
	??0unsmry_loader@ecl@@QEAA@PEBUecl_smspec_struct@@AEBV?$basic_string@DU?$char_traits@D@std@@V?$allocator@D@2@@std@@H@Z
	??1?$_Alloc_construct_ptr@V?$allocator@U?$_List_node@U?$pair@$$CBV?$basic_string@DU?$char_traits@D@std@@V?$allocator@D@2@@std@@N@std@@PEAX@std@@@std@@@std@@QEAA@XZ
	??1?$_Alloc_construct_ptr@V?$allocator@U?$_List_node@U?$pair@$$CBV?$basic_string@DU?$char_traits@D@std@@V?$allocator@D@2@@std@@PEAUecl_grav_phase_struct@@@std@@PEAX@std@@@std@@@std@@QEAA@XZ
	??1?$_Alloc_construct_ptr@V?$allocator@U?$_List_node@U?$pair@$$CBV?$basic_string@DU?$char_traits@D@std@@V?$allocator@D@2@@std@@PEAUecl_grav_survey_struct@@@std@@PEAX@std@@@std@@@std@@QEAA@XZ
	??1?$_Alloc_construct_ptr@V?$allocator@U?$_List_node@U?$pair@$$CBV?$basic_string@DU?$char_traits@D@std@@V?$allocator@D@2@@std@@PEAUecl_grid_struct@@@std@@PEAX@std@@@std@@@std@@QEAA@XZ
	??1?$_Alloc_construct_ptr@V?$allocator@U?$_List_node@U?$pair@$$CBV?$basic_string@DU?$char_traits@D@std@@V?$allocator@D@2@@std@@V?$vector@NV?$allocator@N@std@@@2@@std@@PEAX@std@@@std@@@std@@QEAA@XZ
	??1?$_Alloc_construct_ptr@V?$allocator@U?$_List_node@U?$pair@$$CBV?$basic_string@DU?$char_traits@D@std@@V?$allocator@D@2@@std@@VSourceFile@backward@@@std@@PEAX@std@@@std@@@std@@QEAA@XZ
	??1?$_Alloc_construct_ptr@V?$allocator@U?$_Tree_node@U?$pair@$$CBHH@std@@PEAX@std@@@std@@@std@@QEAA@XZ
	??1?$_Alloc_construct_ptr@V?$allocator@U?$_Tree_node@U?$pair@$$CBHV?$map@V?$basic_string@DU?$char_traits@D@std@@V?$allocator@D@2@@std@@PEBVsmspec_node@ecl@@U?$less@V?$basic_string@DU?$char_traits@D@std@@V?$allocator@D@2@@std@@@2@V?$allocator@U?$pair@$$CBV?$basic_string@DU?$char_traits@D@std@@V?$allocator@D@2@@std@@PEBVsmspec_node@ecl@@@std@@@2@@std@@@std@@PEAX@std@@@std@@@std@@QEAA@XZ
	??1?$_Alloc_construct_ptr@V?$allocator@U?$_Tree_node@U?$pair@$$CBV?$basic_string@DU?$char_traits@D@std@@V?$allocator@D@2@@std@@PEAUwell_conn_collection_struct@@@std@@PEAX@std@@@std@@@std@@QEAA@XZ
	??1?$_Alloc_construct_ptr@V?$allocator@U?$_Tree_node@U?$pair@$$CBV?$basic_string@DU?$char_traits@D@std@@V?$allocator@D@2@@std@@PEAUwell_conn_struct@@@std@@PEAX@std@@@std@@@std@@QEAA@XZ
	??1?$_Alloc_construct_ptr@V?$allocator@U?$_Tree_node@U?$pair@$$CBV?$basic_string@DU?$char_traits@D@std@@V?$allocator@D@2@@std@@PEAUwell_ts_struct@@@std@@PEAX@std@@@std@@@std@@QEAA@XZ
	??1?$_Alloc_construct_ptr@V?$allocator@U?$_Tree_node@U?$pair@$$CBV?$basic_string@DU?$char_traits@D@std@@V?$allocator@D@2@@std@@PEBVsmspec_node@ecl@@@std@@PEAX@std@@@std@@@std@@QEAA@XZ
	??1?$_Alloc_construct_ptr@V?$allocator@U?$_Tree_node@U?$pair@$$CBV?$basic_string@DU?$char_traits@D@std@@V?$allocator@D@2@@std@@V?$map@HV?$map@V?$basic_string@DU?$char_traits@D@std@@V?$allocator@D@2@@std@@PEBVsmspec_node@ecl@@U?$less@V?$basic_string@DU?$char_traits@D@std@@V?$allocator@D@2@@std@@@2@V?$allocator@U?$pair@$$CBV?$basic_string@DU?$char_traits@D@std@@V?$allocator@D@2@@std@@PEBVsmspec_node@ecl@@@std@@@2@@std@@U?$less@H@2@V?$allocator@U?$pair@$$CBHV?$map@V?$basic_string@DU?$char_traits@D@std@@V?$allocator@D@2@@std@@PEBVsmspec_node@ecl@@U?$less@V?$basic_string@DU?$char_traits@D@std@@V?$allocator@D@2@@std@@@2@V?$allocator@U?$pair@$$CBV?$basic_string@DU?$char_traits@D@std@@V?$allocator@D@2@@std@@PEBVsmspec_node@ecl@@@std@@@2@@std@@@std@@@2@@2@@std@@PEAX@std@@@std@@@std@@QEAA@XZ
	??1?$_Alloc_construct_ptr@V?$allocator@U?$_Tree_node@U?$pair@$$CBV?$basic_string@DU?$char_traits@D@std@@V?$allocator@D@2@@std@@V?$map@V?$basic_string@DU?$char_traits@D@std@@V?$allocator@D@2@@std@@PEBVsmspec_node@ecl@@U?$less@V?$basic_string@DU?$char_traits@D@std@@V?$allocator@D@2@@std@@@2@V?$allocator@U?$pair@$$CBV?$basic_string@DU?$char_traits@D@std@@V?$allocator@D@2@@std@@PEBVsmspec_node@ecl@@@std@@@2@@2@@std@@PEAX@std@@@std@@@std@@QEAA@XZ
	??1?$_Alloc_construct_ptr@V?$allocator@U?$_Tree_node@V?$basic_string@DU?$char_traits@D@std@@V?$allocator@D@2@@std@@PEAX@std@@@std@@@std@@QEAA@XZ
	??1?$_Hash@V?$_Umap_traits@V?$basic_string@DU?$char_traits@D@std@@V?$allocator@D@2@@std@@NV?$_Uhash_compare@V?$basic_string@DU?$char_traits@D@std@@V?$allocator@D@2@@std@@U?$hash@V?$basic_string@DU?$char_traits@D@std@@V?$allocator@D@2@@std@@@2@U?$equal_to@V?$basic_string@DU?$char_traits@D@std@@V?$allocator@D@2@@std@@@2@@2@V?$allocator@U?$pair@$$CBV?$basic_string@DU?$char_traits@D@std@@V?$allocator@D@2@@std@@N@std@@@2@$0A@@std@@@std@@QEAA@XZ
	??1?$_Hash@V?$_Umap_traits@V?$basic_string@DU?$char_traits@D@std@@V?$allocator@D@2@@std@@PEAUecl_grav_phase_struct@@V?$_Uhash_compare@V?$basic_string@DU?$char_traits@D@std@@V?$allocator@D@2@@std@@U?$hash@V?$basic_string@DU?$char_traits@D@std@@V?$allocator@D@2@@std@@@2@U?$equal_to@V?$basic_string@DU?$char_traits@D@std@@V?$allocator@D@2@@std@@@2@@2@V?$allocator@U?$pair@$$CBV?$basic_string@DU?$char_traits@D@std@@V?$allocator@D@2@@std@@PEAUecl_grav_phase_struct@@@std@@@2@$0A@@std@@@std@@QEAA@XZ
	??1?$_Hash@V?$_Umap_traits@V?$basic_string@DU?$char_traits@D@std@@V?$allocator@D@2@@std@@PEAUecl_grav_survey_struct@@V?$_Uhash_compare@V?$basic_string@DU?$char_traits@D@std@@V?$allocator@D@2@@std@@U?$hash@V?$basic_string@DU?$char_traits@D@std@@V?$allocator@D@2@@std@@@2@U?$equal_to@V?$basic_string@DU?$char_traits@D@std@@V?$allocator@D@2@@std@@@2@@2@V?$allocator@U?$pair@$$CBV?$basic_string@DU?$char_traits@D@std@@V?$allocator@D@2@@std@@PEAUecl_grav_survey_struct@@@std@@@2@$0A@@std@@@std@@QEAA@XZ
	??1?$_Hash@V?$_Umap_traits@V?$basic_string@DU?$char_traits@D@std@@V?$allocator@D@2@@std@@PEAUecl_grid_struct@@V?$_Uhash_compare@V?$basic_string@DU?$char_traits@D@std@@V?$allocator@D@2@@std@@U?$hash@V?$basic_string@DU?$char_traits@D@std@@V?$allocator@D@2@@std@@@2@U?$equal_to@V?$basic_string@DU?$char_traits@D@std@@V?$allocator@D@2@@std@@@2@@2@V?$allocator@U?$pair@$$CBV?$basic_string@DU?$char_traits@D@std@@V?$allocator@D@2@@std@@PEAUecl_grid_struct@@@std@@@2@$0A@@std@@@std@@QEAA@XZ
	??1?$_Hash@V?$_Umap_traits@V?$basic_string@DU?$char_traits@D@std@@V?$allocator@D@2@@std@@V?$vector@NV?$allocator@N@std@@@2@V?$_Uhash_compare@V?$basic_string@DU?$char_traits@D@std@@V?$allocator@D@2@@std@@U?$hash@V?$basic_string@DU?$char_traits@D@std@@V?$allocator@D@2@@std@@@2@U?$equal_to@V?$basic_string@DU?$char_traits@D@std@@V?$allocator@D@2@@std@@@2@@2@V?$allocator@U?$pair@$$CBV?$basic_string@DU?$char_traits@D@std@@V?$allocator@D@2@@std@@V?$vector@NV?$allocator@N@std@@@2@@std@@@2@$0A@@std@@@std@@QEAA@XZ
	??1?$_Hash@V?$_Umap_traits@V?$basic_string@DU?$char_traits@D@std@@V?$allocator@D@2@@std@@VSourceFile@backward@@V?$_Uhash_compare@V?$basic_string@DU?$char_traits@D@std@@V?$allocator@D@2@@std@@U?$hash@V?$basic_string@DU?$char_traits@D@std@@V?$allocator@D@2@@std@@@2@U?$equal_to@V?$basic_string@DU?$char_traits@D@std@@V?$allocator@D@2@@std@@@2@@2@V?$allocator@U?$pair@$$CBV?$basic_string@DU?$char_traits@D@std@@V?$allocator@D@2@@std@@VSourceFile@backward@@@std@@@2@$0A@@std@@@std@@QEAA@XZ
	??1?$_Hash_vec@V?$allocator@V?$_List_unchecked_iterator@V?$_List_val@U?$_List_simple_types@U?$pair@$$CBV?$basic_string@DU?$char_traits@D@std@@V?$allocator@D@2@@std@@N@std@@@std@@@std@@@std@@@std@@@std@@QEAA@XZ
	??1?$_Hash_vec@V?$allocator@V?$_List_unchecked_iterator@V?$_List_val@U?$_List_simple_types@U?$pair@$$CBV?$basic_string@DU?$char_traits@D@std@@V?$allocator@D@2@@std@@PEAUecl_grav_phase_struct@@@std@@@std@@@std@@@std@@@std@@@std@@QEAA@XZ
	??1?$_Hash_vec@V?$allocator@V?$_List_unchecked_iterator@V?$_List_val@U?$_List_simple_types@U?$pair@$$CBV?$basic_string@DU?$char_traits@D@std@@V?$allocator@D@2@@std@@PEAUecl_grav_survey_struct@@@std@@@std@@@std@@@std@@@std@@@std@@QEAA@XZ
	??1?$_Hash_vec@V?$allocator@V?$_List_unchecked_iterator@V?$_List_val@U?$_List_simple_types@U?$pair@$$CBV?$basic_string@DU?$char_traits@D@std@@V?$allocator@D@2@@std@@PEAUecl_grid_struct@@@std@@@std@@@std@@@std@@@std@@@std@@QEAA@XZ
	??1?$_Hash_vec@V?$allocator@V?$_List_unchecked_iterator@V?$_List_val@U?$_List_simple_types@U?$pair@$$CBV?$basic_string@DU?$char_traits@D@std@@V?$allocator@D@2@@std@@V?$vector@NV?$allocator@N@std@@@2@@std@@@std@@@std@@@std@@@std@@@std@@QEAA@XZ
	??1?$_Hash_vec@V?$allocator@V?$_List_unchecked_iterator@V?$_List_val@U?$_List_simple_types@U?$pair@$$CBV?$basic_string@DU?$char_traits@D@std@@V?$allocator@D@2@@std@@VSourceFile@backward@@@std@@@std@@@std@@@std@@@std@@@std@@QEAA@XZ
	??1?$_List_node_emplace_op2@V?$allocator@U?$_List_node@U?$pair@$$CBV?$basic_string@DU?$char_traits@D@std@@V?$allocator@D@2@@std@@N@std@@PEAX@std@@@std@@@std@@QEAA@XZ
	??1?$_List_node_emplace_op2@V?$allocator@U?$_List_node@U?$pair@$$CBV?$basic_string@DU?$char_traits@D@std@@V?$allocator@D@2@@std@@PEAUecl_grav_phase_struct@@@std@@PEAX@std@@@std@@@std@@QEAA@XZ
	??1?$_List_node_emplace_op2@V?$allocator@U?$_List_node@U?$pair@$$CBV?$basic_string@DU?$char_traits@D@std@@V?$allocator@D@2@@std@@PEAUecl_grav_survey_struct@@@std@@PEAX@std@@@std@@@std@@QEAA@XZ
	??1?$_List_node_emplace_op2@V?$allocator@U?$_List_node@U?$pair@$$CBV?$basic_string@DU?$char_traits@D@std@@V?$allocator@D@2@@std@@PEAUecl_grid_struct@@@std@@PEAX@std@@@std@@@std@@QEAA@XZ
	??1?$_List_node_emplace_op2@V?$allocator@U?$_List_node@U?$pair@$$CBV?$basic_string@DU?$char_traits@D@std@@V?$allocator@D@2@@std@@V?$vector@NV?$allocator@N@std@@@2@@std@@PEAX@std@@@std@@@std@@QEAA@XZ
	??1?$_List_node_emplace_op2@V?$allocator@U?$_List_node@U?$pair@$$CBV?$basic_string@DU?$char_traits@D@std@@V?$allocator@D@2@@std@@VSourceFile@backward@@@std@@PEAX@std@@@std@@@std@@QEAA@XZ
	??1?$_Tidy_guard@V?$vector@U?$pair@IV?$basic_string@DU?$char_traits@D@std@@V?$allocator@D@2@@std@@@std@@V?$allocator@U?$pair@IV?$basic_string@DU?$char_traits@D@std@@V?$allocator@D@2@@std@@@std@@@2@@std@@@std@@QEAA@XZ
	??1?$_Tidy_guard@V?$vector@V?$basic_string@DU?$char_traits@D@std@@V?$allocator@D@2@@std@@V?$allocator@V?$basic_string@DU?$char_traits@D@std@@V?$allocator@D@2@@std@@@2@@std@@@std@@QEAA@XZ
	??1?$_Tree@V?$_Tset_traits@V?$basic_string@DU?$char_traits@D@std@@V?$allocator@D@2@@std@@U?$less@V?$basic_string@DU?$char_traits@D@std@@V?$allocator@D@2@@std@@@2@V?$allocator@V?$basic_string@DU?$char_traits@D@std@@V?$allocator@D@2@@std@@@2@$0A@@std@@@std@@QEAA@XZ
	??1?$_Tree_temp_node_alloc@V?$allocator@U?$_Tree_node@U?$pair@$$CBHV?$map@V?$basic_string@DU?$char_traits@D@std@@V?$allocator@D@2@@std@@PEBVsmspec_node@ecl@@U?$less@V?$basic_string@DU?$char_traits@D@std@@V?$allocator@D@2@@std@@@2@V?$allocator@U?$pair@$$CBV?$basic_string@DU?$char_traits@D@std@@V?$allocator@D@2@@std@@PEBVsmspec_node@ecl@@@std@@@2@@std@@@std@@PEAX@std@@@std@@@std@@QEAA@XZ
	??1?$_Tree_temp_node_alloc@V?$allocator@U?$_Tree_node@U?$pair@$$CBV?$basic_string@DU?$char_traits@D@std@@V?$allocator@D@2@@std@@V?$map@HV?$map@V?$basic_string@DU?$char_traits@D@std@@V?$allocator@D@2@@std@@PEBVsmspec_node@ecl@@U?$less@V?$basic_string@DU?$char_traits@D@std@@V?$allocator@D@2@@std@@@2@V?$allocator@U?$pair@$$CBV?$basic_string@DU?$char_traits@D@std@@V?$allocator@D@2@@std@@PEBVsmspec_node@ecl@@@std@@@2@@std@@U?$less@H@2@V?$allocator@U?$pair@$$CBHV?$map@V?$basic_string@DU?$char_traits@D@std@@V?$allocator@D@2@@std@@PEBVsmspec_node@ecl@@U?$less@V?$basic_string@DU?$char_traits@D@std@@V?$allocator@D@2@@std@@@2@V?$allocator@U?$pair@$$CBV?$basic_string@DU?$char_traits@D@std@@V?$allocator@D@2@@std@@PEBVsmspec_node@ecl@@@std@@@2@@std@@@std@@@2@@2@@std@@PEAX@std@@@std@@@std@@QEAA@XZ
	??1?$_Tree_temp_node_alloc@V?$allocator@U?$_Tree_node@U?$pair@$$CBV?$basic_string@DU?$char_traits@D@std@@V?$allocator@D@2@@std@@V?$map@V?$basic_string@DU?$char_traits@D@std@@V?$allocator@D@2@@std@@PEBVsmspec_node@ecl@@U?$less@V?$basic_string@DU?$char_traits@D@std@@V?$allocator@D@2@@std@@@2@V?$allocator@U?$pair@$$CBV?$basic_string@DU?$char_traits@D@std@@V?$allocator@D@2@@std@@PEBVsmspec_node@ecl@@@std@@@2@@2@@std@@PEAX@std@@@std@@@std@@QEAA@XZ
	??1?$_Tree_temp_node_alloc@V?$allocator@U?$_Tree_node@V?$basic_string@DU?$char_traits@D@std@@V?$allocator@D@2@@std@@PEAX@std@@@std@@@std@@QEAA@XZ
	??1?$_Uninitialized_backout_al@V?$allocator@U?$pair@IV?$basic_string@DU?$char_traits@D@std@@V?$allocator@D@2@@std@@@std@@@std@@@std@@QEAA@XZ
	??1?$_Uninitialized_backout_al@V?$allocator@V?$basic_string@DU?$char_traits@D@std@@V?$allocator@D@2@@std@@@std@@@std@@QEAA@XZ
	??1?$basic_filebuf@DU?$char_traits@D@std@@@std@@UEAA@XZ
	??1?$basic_ifstream@DU?$char_traits@D@std@@@std@@UEAA@XZ
	??1?$basic_ostringstream@DU?$char_traits@D@std@@V?$allocator@D@2@@std@@UEAA@XZ
	??1?$basic_string@DU?$char_traits@D@std@@V?$allocator@D@2@@std@@QEAA@XZ
	??1?$basic_stringbuf@DU?$char_traits@D@std@@V?$allocator@D@2@@std@@UEAA@XZ
	??1?$handle@PEAV?$basic_ifstream@DU?$char_traits@D@std@@@std@@U?$default_delete@PEAV?$basic_ifstream@DU?$char_traits@D@std@@@std@@@details@backward@@@details@backward@@QEAA@XZ
	??1?$list@U?$pair@$$CBV?$basic_string@DU?$char_traits@D@std@@V?$allocator@D@2@@std@@N@std@@V?$allocator@U?$pair@$$CBV?$basic_string@DU?$char_traits@D@std@@V?$allocator@D@2@@std@@N@std@@@2@@std@@QEAA@XZ
	??1?$list@U?$pair@$$CBV?$basic_string@DU?$char_traits@D@std@@V?$allocator@D@2@@std@@PEAUecl_grav_phase_struct@@@std@@V?$allocator@U?$pair@$$CBV?$basic_string@DU?$char_traits@D@std@@V?$allocator@D@2@@std@@PEAUecl_grav_phase_struct@@@std@@@2@@std@@QEAA@XZ
	??1?$list@U?$pair@$$CBV?$basic_string@DU?$char_traits@D@std@@V?$allocator@D@2@@std@@PEAUecl_grav_survey_struct@@@std@@V?$allocator@U?$pair@$$CBV?$basic_string@DU?$char_traits@D@std@@V?$allocator@D@2@@std@@PEAUecl_grav_survey_struct@@@std@@@2@@std@@QEAA@XZ
	??1?$list@U?$pair@$$CBV?$basic_string@DU?$char_traits@D@std@@V?$allocator@D@2@@std@@PEAUecl_grid_struct@@@std@@V?$allocator@U?$pair@$$CBV?$basic_string@DU?$char_traits@D@std@@V?$allocator@D@2@@std@@PEAUecl_grid_struct@@@std@@@2@@std@@QEAA@XZ
	??1?$list@U?$pair@$$CBV?$basic_string@DU?$char_traits@D@std@@V?$allocator@D@2@@std@@V?$vector@NV?$allocator@N@std@@@2@@std@@V?$allocator@U?$pair@$$CBV?$basic_string@DU?$char_traits@D@std@@V?$allocator@D@2@@std@@V?$vector@NV?$allocator@N@std@@@2@@std@@@2@@std@@QEAA@XZ
	??1?$list@U?$pair@$$CBV?$basic_string@DU?$char_traits@D@std@@V?$allocator@D@2@@std@@VSourceFile@backward@@@std@@V?$allocator@U?$pair@$$CBV?$basic_string@DU?$char_traits@D@std@@V?$allocator@D@2@@std@@VSourceFile@backward@@@std@@@2@@std@@QEAA@XZ
	??1?$map@HV?$map@V?$basic_string@DU?$char_traits@D@std@@V?$allocator@D@2@@std@@PEBVsmspec_node@ecl@@U?$less@V?$basic_string@DU?$char_traits@D@std@@V?$allocator@D@2@@std@@@2@V?$allocator@U?$pair@$$CBV?$basic_string@DU?$char_traits@D@std@@V?$allocator@D@2@@std@@PEBVsmspec_node@ecl@@@std@@@2@@std@@U?$less@H@2@V?$allocator@U?$pair@$$CBHV?$map@V?$basic_string@DU?$char_traits@D@std@@V?$allocator@D@2@@std@@PEBVsmspec_node@ecl@@U?$less@V?$basic_string@DU?$char_traits@D@std@@V?$allocator@D@2@@std@@@2@V?$allocator@U?$pair@$$CBV?$basic_string@DU?$char_traits@D@std@@V?$allocator@D@2@@std@@PEBVsmspec_node@ecl@@@std@@@2@@std@@@std@@@2@@std@@QEAA@XZ
	??1?$map@V?$basic_string@DU?$char_traits@D@std@@V?$allocator@D@2@@std@@PEBVsmspec_node@ecl@@U?$less@V?$basic_string@DU?$char_traits@D@std@@V?$allocator@D@2@@std@@@2@V?$allocator@U?$pair@$$CBV?$basic_string@DU?$char_traits@D@std@@V?$allocator@D@2@@std@@PEBVsmspec_node@ecl@@@std@@@2@@std@@QEAA@XZ
	??1?$map@V?$basic_string@DU?$char_traits@D@std@@V?$allocator@D@2@@std@@V?$map@HV?$map@V?$basic_string@DU?$char_traits@D@std@@V?$allocator@D@2@@std@@PEBVsmspec_node@ecl@@U?$less@V?$basic_string@DU?$char_traits@D@std@@V?$allocator@D@2@@std@@@2@V?$allocator@U?$pair@$$CBV?$basic_string@DU?$char_traits@D@std@@V?$allocator@D@2@@std@@PEBVsmspec_node@ecl@@@std@@@2@@std@@U?$less@H@2@V?$allocator@U?$pair@$$CBHV?$map@V?$basic_string@DU?$char_traits@D@std@@V?$allocator@D@2@@std@@PEBVsmspec_node@ecl@@U?$less@V?$basic_string@DU?$char_traits@D@std@@V?$allocator@D@2@@std@@@2@V?$allocator@U?$pair@$$CBV?$basic_string@DU?$char_traits@D@std@@V?$allocator@D@2@@std@@PEBVsmspec_node@ecl@@@std@@@2@@std@@@std@@@2@@2@U?$less@V?$basic_string@DU?$char_traits@D@std@@V?$allocator@D@2@@std@@@2@V?$allocator@U?$pair@$$CBV?$basic_string@DU?$char_traits@D@std@@V?$allocator@D@2@@std@@V?$map@HV?$map@V?$basic_string@DU?$char_traits@D@std@@V?$allocator@D@2@@std@@PEBVsmspec_node@ecl@@U?$less@V?$basic_string@DU?$char_traits@D@std@@V?$allocator@D@2@@std@@@2@V?$allocator@U?$pair@$$CBV?$basic_string@DU?$char_traits@D@std@@V?$allocator@D@2@@std@@PEBVsmspec_node@ecl@@@std@@@2@@std@@U?$less@H@2@V?$allocator@U?$pair@$$CBHV?$map@V?$basic_string@DU?$char_traits@D@std@@V?$allocator@D@2@@std@@PEBVsmspec_node@ecl@@U?$less@V?$basic_string@DU?$char_traits@D@std@@V?$allocator@D@2@@std@@@2@V?$allocator@U?$pair@$$CBV?$basic_string@DU?$char_traits@D@std@@V?$allocator@D@2@@std@@PEBVsmspec_node@ecl@@@std@@@2@@std@@@std@@@2@@2@@std@@@2@@std@@QEAA@XZ
	??1?$map@V?$basic_string@DU?$char_traits@D@std@@V?$allocator@D@2@@std@@V?$map@V?$basic_string@DU?$char_traits@D@std@@V?$allocator@D@2@@std@@PEBVsmspec_node@ecl@@U?$less@V?$basic_string@DU?$char_traits@D@std@@V?$allocator@D@2@@std@@@2@V?$allocator@U?$pair@$$CBV?$basic_string@DU?$char_traits@D@std@@V?$allocator@D@2@@std@@PEBVsmspec_node@ecl@@@std@@@2@@2@U?$less@V?$basic_string@DU?$char_traits@D@std@@V?$allocator@D@2@@std@@@2@V?$allocator@U?$pair@$$CBV?$basic_string@DU?$char_traits@D@std@@V?$allocator@D@2@@std@@V?$map@V?$basic_string@DU?$char_traits@D@std@@V?$allocator@D@2@@std@@PEBVsmspec_node@ecl@@U?$less@V?$basic_string@DU?$char_traits@D@std@@V?$allocator@D@2@@std@@@2@V?$allocator@U?$pair@$$CBV?$basic_string@DU?$char_traits@D@std@@V?$allocator@D@2@@std@@PEBVsmspec_node@ecl@@@std@@@2@@2@@std@@@2@@std@@QEAA@XZ
	??1?$pair@$$CBV?$basic_string@DU?$char_traits@D@std@@V?$allocator@D@2@@std@@V?$map@HV?$map@V?$basic_string@DU?$char_traits@D@std@@V?$allocator@D@2@@std@@PEBVsmspec_node@ecl@@U?$less@V?$basic_string@DU?$char_traits@D@std@@V?$allocator@D@2@@std@@@2@V?$allocator@U?$pair@$$CBV?$basic_string@DU?$char_traits@D@std@@V?$allocator@D@2@@std@@PEBVsmspec_node@ecl@@@std@@@2@@std@@U?$less@H@2@V?$allocator@U?$pair@$$CBHV?$map@V?$basic_string@DU?$char_traits@D@std@@V?$allocator@D@2@@std@@PEBVsmspec_node@ecl@@U?$less@V?$basic_string@DU?$char_traits@D@std@@V?$allocator@D@2@@std@@@2@V?$allocator@U?$pair@$$CBV?$basic_string@DU?$char_traits@D@std@@V?$allocator@D@2@@std@@PEBVsmspec_node@ecl@@@std@@@2@@std@@@std@@@2@@2@@std@@QEAA@XZ
	??1?$pair@$$CBV?$basic_string@DU?$char_traits@D@std@@V?$allocator@D@2@@std@@V?$map@V?$basic_string@DU?$char_traits@D@std@@V?$allocator@D@2@@std@@PEBVsmspec_node@ecl@@U?$less@V?$basic_string@DU?$char_traits@D@std@@V?$allocator@D@2@@std@@@2@V?$allocator@U?$pair@$$CBV?$basic_string@DU?$char_traits@D@std@@V?$allocator@D@2@@std@@PEBVsmspec_node@ecl@@@std@@@2@@2@@std@@QEAA@XZ
	??1?$pair@$$CBV?$basic_string@DU?$char_traits@D@std@@V?$allocator@D@2@@std@@V?$vector@HV?$allocator@H@std@@@2@@std@@QEAA@XZ
	??1?$pair@$$CBV?$basic_string@DU?$char_traits@D@std@@V?$allocator@D@2@@std@@V?$vector@NV?$allocator@N@std@@@2@@std@@QEAA@XZ
	??1?$pair@$$CBV?$basic_string@DU?$char_traits@D@std@@V?$allocator@D@2@@std@@VSourceFile@backward@@@std@@QEAA@XZ
	??1?$pair@IV?$basic_string@DU?$char_traits@D@std@@V?$allocator@D@2@@std@@@std@@QEAA@XZ
	??1?$unique_ptr@Ufortio_struct@@U?$deleter@Ufortio_struct@@$1?fortio_fclose@@YAXPEAU1@@Z@ERT@@@std@@QEAA@XZ
	??1?$unique_ptr@V_Facet_base@std@@U?$default_delete@V_Facet_base@std@@@2@@std@@QEAA@XZ
	??1?$unique_ptr@Vsmspec_node@ecl@@U?$default_delete@Vsmspec_node@ecl@@@std@@@std@@QEAA@XZ
	??1?$unordered_map@V?$basic_string@DU?$char_traits@D@std@@V?$allocator@D@2@@std@@NU?$hash@V?$basic_string@DU?$char_traits@D@std@@V?$allocator@D@2@@std@@@2@U?$equal_to@V?$basic_string@DU?$char_traits@D@std@@V?$allocator@D@2@@std@@@2@V?$allocator@U?$pair@$$CBV?$basic_string@DU?$char_traits@D@std@@V?$allocator@D@2@@std@@N@std@@@2@@std@@QEAA@XZ
	??1?$unordered_map@V?$basic_string@DU?$char_traits@D@std@@V?$allocator@D@2@@std@@PEAUecl_grav_survey_struct@@U?$hash@V?$basic_string@DU?$char_traits@D@std@@V?$allocator@D@2@@std@@@2@U?$equal_to@V?$basic_string@DU?$char_traits@D@std@@V?$allocator@D@2@@std@@@2@V?$allocator@U?$pair@$$CBV?$basic_string@DU?$char_traits@D@std@@V?$allocator@D@2@@std@@PEAUecl_grav_survey_struct@@@std@@@2@@std@@QEAA@XZ
	??1?$unordered_map@V?$basic_string@DU?$char_traits@D@std@@V?$allocator@D@2@@std@@PEAUecl_grid_struct@@U?$hash@V?$basic_string@DU?$char_traits@D@std@@V?$allocator@D@2@@std@@@2@U?$equal_to@V?$basic_string@DU?$char_traits@D@std@@V?$allocator@D@2@@std@@@2@V?$allocator@U?$pair@$$CBV?$basic_string@DU?$char_traits@D@std@@V?$allocator@D@2@@std@@PEAUecl_grid_struct@@@std@@@2@@std@@QEAA@XZ
	??1?$vector@DV?$allocator@D@std@@@std@@QEAA@XZ
	??1?$vector@HV?$allocator@H@std@@@std@@QEAA@XZ
	??1?$vector@NV?$allocator@N@std@@@std@@QEAA@XZ
	??1?$vector@PEAUHINSTANCE__@@V?$allocator@PEAUHINSTANCE__@@@std@@@std@@QEAA@XZ
	??1?$vector@PEAUecl_grav_phase_struct@@V?$allocator@PEAUecl_grav_phase_struct@@@std@@@std@@QEAA@XZ
	??1?$vector@PEAUecl_rft_node_struct@@V?$allocator@PEAUecl_rft_node_struct@@@std@@@std@@QEAA@XZ
	??1?$vector@U?$pair@IV?$basic_string@DU?$char_traits@D@std@@V?$allocator@D@2@@std@@@std@@V?$allocator@U?$pair@IV?$basic_string@DU?$char_traits@D@std@@V?$allocator@D@2@@std@@@std@@@2@@std@@QEAA@XZ
	??1?$vector@UIndexNode@ecl@@V?$allocator@UIndexNode@ecl@@@std@@@std@@QEAA@XZ
	??1?$vector@USourceLoc@ResolvedTrace@backward@@V?$allocator@USourceLoc@ResolvedTrace@backward@@@std@@@std@@QEAA@XZ
	??1?$vector@Umodule_data@backward@@V?$allocator@Umodule_data@backward@@@std@@@std@@QEAA@XZ
	??1?$vector@V?$basic_string@DU?$char_traits@D@std@@V?$allocator@D@2@@std@@V?$allocator@V?$basic_string@DU?$char_traits@D@std@@V?$allocator@D@2@@std@@@2@@std@@QEAA@XZ
	??1?$vector@V?$unique_ptr@Vsmspec_node@ecl@@U?$default_delete@Vsmspec_node@ecl@@@std@@@std@@V?$allocator@V?$unique_ptr@Vsmspec_node@ecl@@U?$default_delete@Vsmspec_node@ecl@@@std@@@std@@@2@@std@@QEAA@XZ
	??1?$vector@_JV?$allocator@_J@std@@@std@@QEAA@XZ
	??1ResolvedTrace@backward@@QEAA@XZ
	??1SourceLoc@ResolvedTrace@backward@@QEAA@XZ
	??1TimeIndex@ecl@@QEAA@XZ
	??1TraceResolver@backward@@UEAA@XZ
	??1TraceResolverImplBase@backward@@UEAA@XZ
	??1_Sentry_base@?$basic_istream@DU?$char_traits@D@std@@@std@@QEAA@XZ
	??1_Sentry_base@?$basic_ostream@DU?$char_traits@D@std@@@std@@QEAA@XZ
	??1bad_alloc@std@@UEAA@XZ
	??1bad_array_new_length@std@@UEAA@XZ
	??1bad_cast@std@@UEAA@XZ
	??1ecl_box@ecl@@QEAA@XZ
	??1ecl_grid_cache@ecl@@QEAA@XZ
	??1ecl_smspec_struct@@QEAA@XZ
	??1ecl_sum_file_data@ecl@@QEAA@XZ
	??1exception@std@@UEAA@XZ
	??1invalid_argument@std@@UEAA@XZ
	??1locale@std@@QEAA@XZ
	??1module_data@backward@@QEAA@XZ
	??1out_of_range@std@@UEAA@XZ
	??1runtime_error@std@@UEAA@XZ
	??1sentry@?$basic_istream@DU?$char_traits@D@std@@@std@@QEAA@XZ
	??1sentry@?$basic_ostream@DU?$char_traits@D@std@@@std@@QEAA@XZ
	??1smspec_node@ecl@@QEAA@XZ
	??1unsmry_loader@ecl@@QEAA@XZ
	??4?$atomic@_N@std@@QEAA_N_N@Z
	??4?$basic_string@DU?$char_traits@D@std@@V?$allocator@D@2@@std@@QEAAAEAV01@$$QEAV01@@Z
	??9?$_List_unchecked_const_iterator@V?$_List_val@U?$_List_simple_types@U?$pair@$$CBV?$basic_string@DU?$char_traits@D@std@@V?$allocator@D@2@@std@@PEAUecl_grav_survey_struct@@@std@@@std@@@std@@U_Iterator_base0@2@@std@@QEBA_NAEBV01@@Z
	??A?$map@HV?$map@V?$basic_string@DU?$char_traits@D@std@@V?$allocator@D@2@@std@@PEBVsmspec_node@ecl@@U?$less@V?$basic_string@DU?$char_traits@D@std@@V?$allocator@D@2@@std@@@2@V?$allocator@U?$pair@$$CBV?$basic_string@DU?$char_traits@D@std@@V?$allocator@D@2@@std@@PEBVsmspec_node@ecl@@@std@@@2@@std@@U?$less@H@2@V?$allocator@U?$pair@$$CBHV?$map@V?$basic_string@DU?$char_traits@D@std@@V?$allocator@D@2@@std@@PEBVsmspec_node@ecl@@U?$less@V?$basic_string@DU?$char_traits@D@std@@V?$allocator@D@2@@std@@@2@V?$allocator@U?$pair@$$CBV?$basic_string@DU?$char_traits@D@std@@V?$allocator@D@2@@std@@PEBVsmspec_node@ecl@@@std@@@2@@std@@@std@@@2@@std@@QEAAAEAV?$map@V?$basic_string@DU?$char_traits@D@std@@V?$allocator@D@2@@std@@PEBVsmspec_node@ecl@@U?$less@V?$basic_string@DU?$char_traits@D@std@@V?$allocator@D@2@@std@@@2@V?$allocator@U?$pair@$$CBV?$basic_string@DU?$char_traits@D@std@@V?$allocator@D@2@@std@@PEBVsmspec_node@ecl@@@std@@@2@@1@AEBH@Z
	??A?$map@V?$basic_string@DU?$char_traits@D@std@@V?$allocator@D@2@@std@@PEAUwell_conn_collection_struct@@U?$less@V?$basic_string@DU?$char_traits@D@std@@V?$allocator@D@2@@std@@@2@V?$allocator@U?$pair@$$CBV?$basic_string@DU?$char_traits@D@std@@V?$allocator@D@2@@std@@PEAUwell_conn_collection_struct@@@std@@@2@@std@@QEAAAEAPEAUwell_conn_collection_struct@@$$QEAV?$basic_string@DU?$char_traits@D@std@@V?$allocator@D@2@@1@@Z
	??A?$map@V?$basic_string@DU?$char_traits@D@std@@V?$allocator@D@2@@std@@PEBVsmspec_node@ecl@@U?$less@V?$basic_string@DU?$char_traits@D@std@@V?$allocator@D@2@@std@@@2@V?$allocator@U?$pair@$$CBV?$basic_string@DU?$char_traits@D@std@@V?$allocator@D@2@@std@@PEBVsmspec_node@ecl@@@std@@@2@@std@@QEAAAEAPEBVsmspec_node@ecl@@$$QEAV?$basic_string@DU?$char_traits@D@std@@V?$allocator@D@2@@1@@Z
	??A?$map@V?$basic_string@DU?$char_traits@D@std@@V?$allocator@D@2@@std@@V?$map@V?$basic_string@DU?$char_traits@D@std@@V?$allocator@D@2@@std@@PEBVsmspec_node@ecl@@U?$less@V?$basic_string@DU?$char_traits@D@std@@V?$allocator@D@2@@std@@@2@V?$allocator@U?$pair@$$CBV?$basic_string@DU?$char_traits@D@std@@V?$allocator@D@2@@std@@PEBVsmspec_node@ecl@@@std@@@2@@2@U?$less@V?$basic_string@DU?$char_traits@D@std@@V?$allocator@D@2@@std@@@2@V?$allocator@U?$pair@$$CBV?$basic_string@DU?$char_traits@D@std@@V?$allocator@D@2@@std@@V?$map@V?$basic_string@DU?$char_traits@D@std@@V?$allocator@D@2@@std@@PEBVsmspec_node@ecl@@U?$less@V?$basic_string@DU?$char_traits@D@std@@V?$allocator@D@2@@std@@@2@V?$allocator@U?$pair@$$CBV?$basic_string@DU?$char_traits@D@std@@V?$allocator@D@2@@std@@PEBVsmspec_node@ecl@@@std@@@2@@2@@std@@@2@@std@@QEAAAEAV?$map@V?$basic_string@DU?$char_traits@D@std@@V?$allocator@D@2@@std@@PEBVsmspec_node@ecl@@U?$less@V?$basic_string@DU?$char_traits@D@std@@V?$allocator@D@2@@std@@@2@V?$allocator@U?$pair@$$CBV?$basic_string@DU?$char_traits@D@std@@V?$allocator@D@2@@std@@PEBVsmspec_node@ecl@@@std@@@2@@1@$$QEAV?$basic_string@DU?$char_traits@D@std@@V?$allocator@D@2@@1@@Z
	??D?$_List_unchecked_const_iterator@V?$_List_val@U?$_List_simple_types@U?$pair@$$CBV?$basic_string@DU?$char_traits@D@std@@V?$allocator@D@2@@std@@PEAUecl_grav_survey_struct@@@std@@@std@@@std@@U_Iterator_base0@2@@std@@QEBAAEBU?$pair@$$CBV?$basic_string@DU?$char_traits@D@std@@V?$allocator@D@2@@std@@PEAUecl_grav_survey_struct@@@1@XZ
	??E?$_List_unchecked_const_iterator@V?$_List_val@U?$_List_simple_types@U?$pair@$$CBV?$basic_string@DU?$char_traits@D@std@@V?$allocator@D@2@@std@@PEAUecl_grav_survey_struct@@@std@@@std@@@std@@U_Iterator_base0@2@@std@@QEAAAEAV01@XZ
	??R?$less@V?$basic_string@DU?$char_traits@D@std@@V?$allocator@D@2@@std@@@std@@QEBA_NAEBV?$basic_string@DU?$char_traits@D@std@@V?$allocator@D@2@@1@0@Z
	??__Fpaths@?1??get_paths_from_env_variable@SourceFile@backward@@AEAAAEBV?$vector@V?$basic_string@DU?$char_traits@D@std@@V?$allocator@D@2@@std@@V?$allocator@V?$basic_string@DU?$char_traits@D@std@@V?$allocator@D@2@@std@@@2@@std@@XZ@YAXXZ
	?EclFilename@ERT@@YA?AV?$basic_string@DU?$char_traits@D@std@@V?$allocator@D@2@@std@@AEBV23@0W4ecl_file_enum@@H_N@Z
	?EclFilename@ERT@@YA?AV?$basic_string@DU?$char_traits@D@std@@V?$allocator@D@2@@std@@AEBV23@0W4ecl_file_enum@@_N@Z
	?EclFilename@ERT@@YA?AV?$basic_string@DU?$char_traits@D@std@@V?$allocator@D@2@@std@@AEBV23@W4ecl_file_enum@@H_N@Z
	?EclFilename@ERT@@YA?AV?$basic_string@DU?$char_traits@D@std@@V?$allocator@D@2@@std@@AEBV23@W4ecl_file_enum@@_N@Z
	?EclFiletype@ERT@@YA?AW4ecl_file_enum@@AEBV?$basic_string@DU?$char_traits@D@std@@V?$allocator@D@2@@std@@@Z
	?_Assign_grow@?$_Hash_vec@V?$allocator@V?$_List_unchecked_iterator@V?$_List_val@U?$_List_simple_types@U?$pair@$$CBV?$basic_string@DU?$char_traits@D@std@@V?$allocator@D@2@@std@@N@std@@@std@@@std@@@std@@@std@@@std@@QEAAX_KV?$_List_unchecked_iterator@V?$_List_val@U?$_List_simple_types@U?$pair@$$CBV?$basic_string@DU?$char_traits@D@std@@V?$allocator@D@2@@std@@N@std@@@std@@@std@@@2@@Z
	?_Assign_grow@?$_Hash_vec@V?$allocator@V?$_List_unchecked_iterator@V?$_List_val@U?$_List_simple_types@U?$pair@$$CBV?$basic_string@DU?$char_traits@D@std@@V?$allocator@D@2@@std@@PEAUecl_grav_phase_struct@@@std@@@std@@@std@@@std@@@std@@@std@@QEAAX_KV?$_List_unchecked_iterator@V?$_List_val@U?$_List_simple_types@U?$pair@$$CBV?$basic_string@DU?$char_traits@D@std@@V?$allocator@D@2@@std@@PEAUecl_grav_phase_struct@@@std@@@std@@@std@@@2@@Z
	?_Assign_grow@?$_Hash_vec@V?$allocator@V?$_List_unchecked_iterator@V?$_List_val@U?$_List_simple_types@U?$pair@$$CBV?$basic_string@DU?$char_traits@D@std@@V?$allocator@D@2@@std@@PEAUecl_grav_survey_struct@@@std@@@std@@@std@@@std@@@std@@@std@@QEAAX_KV?$_List_unchecked_iterator@V?$_List_val@U?$_List_simple_types@U?$pair@$$CBV?$basic_string@DU?$char_traits@D@std@@V?$allocator@D@2@@std@@PEAUecl_grav_survey_struct@@@std@@@std@@@std@@@2@@Z
	?_Assign_grow@?$_Hash_vec@V?$allocator@V?$_List_unchecked_iterator@V?$_List_val@U?$_List_simple_types@U?$pair@$$CBV?$basic_string@DU?$char_traits@D@std@@V?$allocator@D@2@@std@@PEAUecl_grid_struct@@@std@@@std@@@std@@@std@@@std@@@std@@QEAAX_KV?$_List_unchecked_iterator@V?$_List_val@U?$_List_simple_types@U?$pair@$$CBV?$basic_string@DU?$char_traits@D@std@@V?$allocator@D@2@@std@@PEAUecl_grid_struct@@@std@@@std@@@std@@@2@@Z
	?_Assign_grow@?$_Hash_vec@V?$allocator@V?$_List_unchecked_iterator@V?$_List_val@U?$_List_simple_types@U?$pair@$$CBV?$basic_string@DU?$char_traits@D@std@@V?$allocator@D@2@@std@@V?$vector@NV?$allocator@N@std@@@2@@std@@@std@@@std@@@std@@@std@@@std@@QEAAX_KV?$_List_unchecked_iterator@V?$_List_val@U?$_List_simple_types@U?$pair@$$CBV?$basic_string@DU?$char_traits@D@std@@V?$allocator@D@2@@std@@V?$vector@NV?$allocator@N@std@@@2@@std@@@std@@@std@@@2@@Z
	?_Assign_grow@?$_Hash_vec@V?$allocator@V?$_List_unchecked_iterator@V?$_List_val@U?$_List_simple_types@U?$pair@$$CBV?$basic_string@DU?$char_traits@D@std@@V?$allocator@D@2@@std@@VSourceFile@backward@@@std@@@std@@@std@@@std@@@std@@@std@@QEAAX_KV?$_List_unchecked_iterator@V?$_List_val@U?$_List_simple_types@U?$pair@$$CBV?$basic_string@DU?$char_traits@D@std@@V?$allocator@D@2@@std@@VSourceFile@backward@@@std@@@std@@@std@@@2@@Z
	?_Buy_raw@?$vector@HV?$allocator@H@std@@@std@@AEAAX_K@Z
	?_Change_array@?$vector@HV?$allocator@H@std@@@std@@AEAAXQEAH_K1@Z
	?_Change_array@?$vector@NV?$allocator@N@std@@@std@@AEAAXQEAN_K1@Z
	?_Change_array@?$vector@PEAXV?$allocator@PEAX@std@@@std@@AEAAXQEAPEAX_K1@Z
	?_Endwrite@?$basic_filebuf@DU?$char_traits@D@std@@@std@@IEAA_NXZ
	?_Forced_rehash@?$_Hash@V?$_Umap_traits@V?$basic_string@DU?$char_traits@D@std@@V?$allocator@D@2@@std@@NV?$_Uhash_compare@V?$basic_string@DU?$char_traits@D@std@@V?$allocator@D@2@@std@@U?$hash@V?$basic_string@DU?$char_traits@D@std@@V?$allocator@D@2@@std@@@2@U?$equal_to@V?$basic_string@DU?$char_traits@D@std@@V?$allocator@D@2@@std@@@2@@2@V?$allocator@U?$pair@$$CBV?$basic_string@DU?$char_traits@D@std@@V?$allocator@D@2@@std@@N@std@@@2@$0A@@std@@@std@@IEAAX_K@Z
	?_Forced_rehash@?$_Hash@V?$_Umap_traits@V?$basic_string@DU?$char_traits@D@std@@V?$allocator@D@2@@std@@PEAUecl_grav_phase_struct@@V?$_Uhash_compare@V?$basic_string@DU?$char_traits@D@std@@V?$allocator@D@2@@std@@U?$hash@V?$basic_string@DU?$char_traits@D@std@@V?$allocator@D@2@@std@@@2@U?$equal_to@V?$basic_string@DU?$char_traits@D@std@@V?$allocator@D@2@@std@@@2@@2@V?$allocator@U?$pair@$$CBV?$basic_string@DU?$char_traits@D@std@@V?$allocator@D@2@@std@@PEAUecl_grav_phase_struct@@@std@@@2@$0A@@std@@@std@@IEAAX_K@Z
	?_Forced_rehash@?$_Hash@V?$_Umap_traits@V?$basic_string@DU?$char_traits@D@std@@V?$allocator@D@2@@std@@PEAUecl_grav_survey_struct@@V?$_Uhash_compare@V?$basic_string@DU?$char_traits@D@std@@V?$allocator@D@2@@std@@U?$hash@V?$basic_string@DU?$char_traits@D@std@@V?$allocator@D@2@@std@@@2@U?$equal_to@V?$basic_string@DU?$char_traits@D@std@@V?$allocator@D@2@@std@@@2@@2@V?$allocator@U?$pair@$$CBV?$basic_string@DU?$char_traits@D@std@@V?$allocator@D@2@@std@@PEAUecl_grav_survey_struct@@@std@@@2@$0A@@std@@@std@@IEAAX_K@Z
	?_Forced_rehash@?$_Hash@V?$_Umap_traits@V?$basic_string@DU?$char_traits@D@std@@V?$allocator@D@2@@std@@PEAUecl_grid_struct@@V?$_Uhash_compare@V?$basic_string@DU?$char_traits@D@std@@V?$allocator@D@2@@std@@U?$hash@V?$basic_string@DU?$char_traits@D@std@@V?$allocator@D@2@@std@@@2@U?$equal_to@V?$basic_string@DU?$char_traits@D@std@@V?$allocator@D@2@@std@@@2@@2@V?$allocator@U?$pair@$$CBV?$basic_string@DU?$char_traits@D@std@@V?$allocator@D@2@@std@@PEAUecl_grid_struct@@@std@@@2@$0A@@std@@@std@@IEAAX_K@Z
	?_Forced_rehash@?$_Hash@V?$_Umap_traits@V?$basic_string@DU?$char_traits@D@std@@V?$allocator@D@2@@std@@V?$vector@NV?$allocator@N@std@@@2@V?$_Uhash_compare@V?$basic_string@DU?$char_traits@D@std@@V?$allocator@D@2@@std@@U?$hash@V?$basic_string@DU?$char_traits@D@std@@V?$allocator@D@2@@std@@@2@U?$equal_to@V?$basic_string@DU?$char_traits@D@std@@V?$allocator@D@2@@std@@@2@@2@V?$allocator@U?$pair@$$CBV?$basic_string@DU?$char_traits@D@std@@V?$allocator@D@2@@std@@V?$vector@NV?$allocator@N@std@@@2@@std@@@2@$0A@@std@@@std@@IEAAX_K@Z
	?_Forced_rehash@?$_Hash@V?$_Umap_traits@V?$basic_string@DU?$char_traits@D@std@@V?$allocator@D@2@@std@@VSourceFile@backward@@V?$_Uhash_compare@V?$basic_string@DU?$char_traits@D@std@@V?$allocator@D@2@@std@@U?$hash@V?$basic_string@DU?$char_traits@D@std@@V?$allocator@D@2@@std@@@2@U?$equal_to@V?$basic_string@DU?$char_traits@D@std@@V?$allocator@D@2@@std@@@2@@2@V?$allocator@U?$pair@$$CBV?$basic_string@DU?$char_traits@D@std@@V?$allocator@D@2@@std@@VSourceFile@backward@@@std@@@2@$0A@@std@@@std@@IEAAX_K@Z
	?_Insert_node@?$_Tree_val@U?$_Tree_simple_types@U?$pair@$$CBHH@std@@@std@@@std@@QEAAPEAU?$_Tree_node@U?$pair@$$CBHH@std@@PEAX@2@U?$_Tree_id@PEAU?$_Tree_node@U?$pair@$$CBHH@std@@PEAX@std@@@2@QEAU32@@Z
	?_Insert_node@?$_Tree_val@U?$_Tree_simple_types@U?$pair@$$CBHV?$map@V?$basic_string@DU?$char_traits@D@std@@V?$allocator@D@2@@std@@PEBVsmspec_node@ecl@@U?$less@V?$basic_string@DU?$char_traits@D@std@@V?$allocator@D@2@@std@@@2@V?$allocator@U?$pair@$$CBV?$basic_string@DU?$char_traits@D@std@@V?$allocator@D@2@@std@@PEBVsmspec_node@ecl@@@std@@@2@@std@@@std@@@std@@@std@@QEAAPEAU?$_Tree_node@U?$pair@$$CBHV?$map@V?$basic_string@DU?$char_traits@D@std@@V?$allocator@D@2@@std@@PEBVsmspec_node@ecl@@U?$less@V?$basic_string@DU?$char_traits@D@std@@V?$allocator@D@2@@std@@@2@V?$allocator@U?$pair@$$CBV?$basic_string@DU?$char_traits@D@std@@V?$allocator@D@2@@std@@PEBVsmspec_node@ecl@@@std@@@2@@std@@@std@@PEAX@2@U?$_Tree_id@PEAU?$_Tree_node@U?$pair@$$CBHV?$map@V?$basic_string@DU?$char_traits@D@std@@V?$allocator@D@2@@std@@PEBVsmspec_node@ecl@@U?$less@V?$basic_string@DU?$char_traits@D@std@@V?$allocator@D@2@@std@@@2@V?$allocator@U?$pair@$$CBV?$basic_string@DU?$char_traits@D@std@@V?$allocator@D@2@@std@@PEBVsmspec_node@ecl@@@std@@@2@@std@@@std@@PEAX@std@@@2@QEAU32@@Z
	?_Insert_node@?$_Tree_val@U?$_Tree_simple_types@U?$pair@$$CBV?$basic_string@DU?$char_traits@D@std@@V?$allocator@D@2@@std@@PEAUgeo_polygon_struct@@@std@@@std@@@std@@QEAAPEAU?$_Tree_node@U?$pair@$$CBV?$basic_string@DU?$char_traits@D@std@@V?$allocator@D@2@@std@@PEAUgeo_polygon_struct@@@std@@PEAX@2@U?$_Tree_id@PEAU?$_Tree_node@U?$pair@$$CBV?$basic_string@DU?$char_traits@D@std@@V?$allocator@D@2@@std@@PEAUgeo_polygon_struct@@@std@@PEAX@std@@@2@QEAU32@@Z
	?_Insert_node@?$_Tree_val@U?$_Tree_simple_types@U?$pair@$$CBV?$basic_string@DU?$char_traits@D@std@@V?$allocator@D@2@@std@@PEAUwell_conn_collection_struct@@@std@@@std@@@std@@QEAAPEAU?$_Tree_node@U?$pair@$$CBV?$basic_string@DU?$char_traits@D@std@@V?$allocator@D@2@@std@@PEAUwell_conn_collection_struct@@@std@@PEAX@2@U?$_Tree_id@PEAU?$_Tree_node@U?$pair@$$CBV?$basic_string@DU?$char_traits@D@std@@V?$allocator@D@2@@std@@PEAUwell_conn_collection_struct@@@std@@PEAX@std@@@2@QEAU32@@Z
	?_Insert_node@?$_Tree_val@U?$_Tree_simple_types@U?$pair@$$CBV?$basic_string@DU?$char_traits@D@std@@V?$allocator@D@2@@std@@PEAUwell_conn_struct@@@std@@@std@@@std@@QEAAPEAU?$_Tree_node@U?$pair@$$CBV?$basic_string@DU?$char_traits@D@std@@V?$allocator@D@2@@std@@PEAUwell_conn_struct@@@std@@PEAX@2@U?$_Tree_id@PEAU?$_Tree_node@U?$pair@$$CBV?$basic_string@DU?$char_traits@D@std@@V?$allocator@D@2@@std@@PEAUwell_conn_struct@@@std@@PEAX@std@@@2@QEAU32@@Z
	?_Insert_node@?$_Tree_val@U?$_Tree_simple_types@U?$pair@$$CBV?$basic_string@DU?$char_traits@D@std@@V?$allocator@D@2@@std@@PEAUwell_ts_struct@@@std@@@std@@@std@@QEAAPEAU?$_Tree_node@U?$pair@$$CBV?$basic_string@DU?$char_traits@D@std@@V?$allocator@D@2@@std@@PEAUwell_ts_struct@@@std@@PEAX@2@U?$_Tree_id@PEAU?$_Tree_node@U?$pair@$$CBV?$basic_string@DU?$char_traits@D@std@@V?$allocator@D@2@@std@@PEAUwell_ts_struct@@@std@@PEAX@std@@@2@QEAU32@@Z
	?_Insert_node@?$_Tree_val@U?$_Tree_simple_types@U?$pair@$$CBV?$basic_string@DU?$char_traits@D@std@@V?$allocator@D@2@@std@@PEBVsmspec_node@ecl@@@std@@@std@@@std@@QEAAPEAU?$_Tree_node@U?$pair@$$CBV?$basic_string@DU?$char_traits@D@std@@V?$allocator@D@2@@std@@PEBVsmspec_node@ecl@@@std@@PEAX@2@U?$_Tree_id@PEAU?$_Tree_node@U?$pair@$$CBV?$basic_string@DU?$char_traits@D@std@@V?$allocator@D@2@@std@@PEBVsmspec_node@ecl@@@std@@PEAX@std@@@2@QEAU32@@Z
	?_Insert_node@?$_Tree_val@U?$_Tree_simple_types@U?$pair@$$CBV?$basic_string@DU?$char_traits@D@std@@V?$allocator@D@2@@std@@V?$map@HV?$map@V?$basic_string@DU?$char_traits@D@std@@V?$allocator@D@2@@std@@PEBVsmspec_node@ecl@@U?$less@V?$basic_string@DU?$char_traits@D@std@@V?$allocator@D@2@@std@@@2@V?$allocator@U?$pair@$$CBV?$basic_string@DU?$char_traits@D@std@@V?$allocator@D@2@@std@@PEBVsmspec_node@ecl@@@std@@@2@@std@@U?$less@H@2@V?$allocator@U?$pair@$$CBHV?$map@V?$basic_string@DU?$char_traits@D@std@@V?$allocator@D@2@@std@@PEBVsmspec_node@ecl@@U?$less@V?$basic_string@DU?$char_traits@D@std@@V?$allocator@D@2@@std@@@2@V?$allocator@U?$pair@$$CBV?$basic_string@DU?$char_traits@D@std@@V?$allocator@D@2@@std@@PEBVsmspec_node@ecl@@@std@@@2@@std@@@std@@@2@@2@@std@@@std@@@std@@QEAAPEAU?$_Tree_node@U?$pair@$$CBV?$basic_string@DU?$char_traits@D@std@@V?$allocator@D@2@@std@@V?$map@HV?$map@V?$basic_string@DU?$char_traits@D@std@@V?$allocator@D@2@@std@@PEBVsmspec_node@ecl@@U?$less@V?$basic_string@DU?$char_traits@D@std@@V?$allocator@D@2@@std@@@2@V?$allocator@U?$pair@$$CBV?$basic_string@DU?$char_traits@D@std@@V?$allocator@D@2@@std@@PEBVsmspec_node@ecl@@@std@@@2@@std@@U?$less@H@2@V?$allocator@U?$pair@$$CBHV?$map@V?$basic_string@DU?$char_traits@D@std@@V?$allocator@D@2@@std@@PEBVsmspec_node@ecl@@U?$less@V?$basic_string@DU?$char_traits@D@std@@V?$allocator@D@2@@std@@@2@V?$allocator@U?$pair@$$CBV?$basic_string@DU?$char_traits@D@std@@V?$allocator@D@2@@std@@PEBVsmspec_node@ecl@@@std@@@2@@std@@@std@@@2@@2@@std@@PEAX@2@U?$_Tree_id@PEAU?$_Tree_node@U?$pair@$$CBV?$basic_string@DU?$char_traits@D@std@@V?$allocator@D@2@@std@@V?$map@HV?$map@V?$basic_string@DU?$char_traits@D@std@@V?$allocator@D@2@@std@@PEBVsmspec_node@ecl@@U?$less@V?$basic_string@DU?$char_traits@D@std@@V?$allocator@D@2@@std@@@2@V?$allocator@U?$pair@$$CBV?$basic_string@DU?$char_traits@D@std@@V?$allocator@D@2@@std@@PEBVsmspec_node@ecl@@@std@@@2@@std@@U?$less@H@2@V?$allocator@U?$pair@$$CBHV?$map@V?$basic_string@DU?$char_traits@D@std@@V?$allocator@D@2@@std@@PEBVsmspec_node@ecl@@U?$less@V?$basic_string@DU?$char_traits@D@std@@V?$allocator@D@2@@std@@@2@V?$allocator@U?$pair@$$CBV?$basic_string@DU?$char_traits@D@std@@V?$allocator@D@2@@std@@PEBVsmspec_node@ecl@@@std@@@2@@std@@@std@@@2@@2@@std@@PEAX@std@@@2@QEAU32@@Z
	?_Insert_node@?$_Tree_val@U?$_Tree_simple_types@U?$pair@$$CBV?$basic_string@DU?$char_traits@D@std@@V?$allocator@D@2@@std@@V?$map@V?$basic_string@DU?$char_traits@D@std@@V?$allocator@D@2@@std@@PEBVsmspec_node@ecl@@U?$less@V?$basic_string@DU?$char_traits@D@std@@V?$allocator@D@2@@std@@@2@V?$allocator@U?$pair@$$CBV?$basic_string@DU?$char_traits@D@std@@V?$allocator@D@2@@std@@PEBVsmspec_node@ecl@@@std@@@2@@2@@std@@@std@@@std@@QEAAPEAU?$_Tree_node@U?$pair@$$CBV?$basic_string@DU?$char_traits@D@std@@V?$allocator@D@2@@std@@V?$map@V?$basic_string@DU?$char_traits@D@std@@V?$allocator@D@2@@std@@PEBVsmspec_node@ecl@@U?$less@V?$basic_string@DU?$char_traits@D@std@@V?$allocator@D@2@@std@@@2@V?$allocator@U?$pair@$$CBV?$basic_string@DU?$char_traits@D@std@@V?$allocator@D@2@@std@@PEBVsmspec_node@ecl@@@std@@@2@@2@@std@@PEAX@2@U?$_Tree_id@PEAU?$_Tree_node@U?$pair@$$CBV?$basic_string@DU?$char_traits@D@std@@V?$allocator@D@2@@std@@V?$map@V?$basic_string@DU?$char_traits@D@std@@V?$allocator@D@2@@std@@PEBVsmspec_node@ecl@@U?$less@V?$basic_string@DU?$char_traits@D@std@@V?$allocator@D@2@@std@@@2@V?$allocator@U?$pair@$$CBV?$basic_string@DU?$char_traits@D@std@@V?$allocator@D@2@@std@@PEBVsmspec_node@ecl@@@std@@@2@@2@@std@@PEAX@std@@@2@QEAU32@@Z
	?_Insert_node@?$_Tree_val@U?$_Tree_simple_types@U?$pair@$$CBV?$basic_string@DU?$char_traits@D@std@@V?$allocator@D@2@@std@@V?$vector@HV?$allocator@H@std@@@2@@std@@@std@@@std@@QEAAPEAU?$_Tree_node@U?$pair@$$CBV?$basic_string@DU?$char_traits@D@std@@V?$allocator@D@2@@std@@V?$vector@HV?$allocator@H@std@@@2@@std@@PEAX@2@U?$_Tree_id@PEAU?$_Tree_node@U?$pair@$$CBV?$basic_string@DU?$char_traits@D@std@@V?$allocator@D@2@@std@@V?$vector@HV?$allocator@H@std@@@2@@std@@PEAX@std@@@2@QEAU32@@Z
	?_Insert_node@?$_Tree_val@U?$_Tree_simple_types@V?$basic_string@DU?$char_traits@D@std@@V?$allocator@D@2@@std@@@std@@@std@@QEAAPEAU?$_Tree_node@V?$basic_string@DU?$char_traits@D@std@@V?$allocator@D@2@@std@@PEAX@2@U?$_Tree_id@PEAU?$_Tree_node@V?$basic_string@DU?$char_traits@D@std@@V?$allocator@D@2@@std@@PEAX@std@@@2@QEAU32@@Z
	?_Insert_x@?$vector@_NV?$allocator@_N@std@@@std@@QEAA_KV?$_Vb_const_iterator@U?$_Wrap_alloc@V?$allocator@I@std@@@std@@@2@_K@Z
	?_Lock@?$basic_filebuf@DU?$char_traits@D@std@@@std@@UEAAXXZ
	?_Maklocwcs@std@@YAPEA_WPEB_W@Z
	?_Reset_back@?$basic_filebuf@DU?$char_traits@D@std@@@std@@AEAAXXZ
	?_Throw_bad_array_new_length@std@@YAXXZ
	?_Throw_bad_cast@std@@YAXXZ
	?_Throw_tree_length_error@std@@YAXXZ
	?_Tidy@?$vector@U?$pair@IV?$basic_string@DU?$char_traits@D@std@@V?$allocator@D@2@@std@@@std@@V?$allocator@U?$pair@IV?$basic_string@DU?$char_traits@D@std@@V?$allocator@D@2@@std@@@std@@@2@@std@@AEAAXXZ
	?_Tidy@?$vector@V?$basic_string@DU?$char_traits@D@std@@V?$allocator@D@2@@std@@V?$allocator@V?$basic_string@DU?$char_traits@D@std@@V?$allocator@D@2@@std@@@2@@std@@AEAAXXZ
	?_Unchecked_begin@?$_Hash@V?$_Umap_traits@V?$basic_string@DU?$char_traits@D@std@@V?$allocator@D@2@@std@@PEAUecl_grav_survey_struct@@V?$_Uhash_compare@V?$basic_string@DU?$char_traits@D@std@@V?$allocator@D@2@@std@@U?$hash@V?$basic_string@DU?$char_traits@D@std@@V?$allocator@D@2@@std@@@2@U?$equal_to@V?$basic_string@DU?$char_traits@D@std@@V?$allocator@D@2@@std@@@2@@2@V?$allocator@U?$pair@$$CBV?$basic_string@DU?$char_traits@D@std@@V?$allocator@D@2@@std@@PEAUecl_grav_survey_struct@@@std@@@2@$0A@@std@@@std@@QEBA?AV?$_List_unchecked_const_iterator@V?$_List_val@U?$_List_simple_types@U?$pair@$$CBV?$basic_string@DU?$char_traits@D@std@@V?$allocator@D@2@@std@@PEAUecl_grav_survey_struct@@@std@@@std@@@std@@U_Iterator_base0@2@@2@XZ
	?_Unchecked_end@?$_Hash@V?$_Umap_traits@V?$basic_string@DU?$char_traits@D@std@@V?$allocator@D@2@@std@@PEAUecl_grav_survey_struct@@V?$_Uhash_compare@V?$basic_string@DU?$char_traits@D@std@@V?$allocator@D@2@@std@@U?$hash@V?$basic_string@DU?$char_traits@D@std@@V?$allocator@D@2@@std@@@2@U?$equal_to@V?$basic_string@DU?$char_traits@D@std@@V?$allocator@D@2@@std@@@2@@2@V?$allocator@U?$pair@$$CBV?$basic_string@DU?$char_traits@D@std@@V?$allocator@D@2@@std@@PEAUecl_grav_survey_struct@@@std@@@2@$0A@@std@@@std@@QEBA?AV?$_List_unchecked_const_iterator@V?$_List_val@U?$_List_simple_types@U?$pair@$$CBV?$basic_string@DU?$char_traits@D@std@@V?$allocator@D@2@@std@@PEAUecl_grav_survey_struct@@@std@@@std@@@std@@U_Iterator_base0@2@@2@XZ
	?_Unlock@?$basic_filebuf@DU?$char_traits@D@std@@@std@@UEAAXXZ
	?_Xlen@?$vector@_NV?$allocator@_N@std@@@std@@QEBAXXZ
	?_Xlen_string@std@@YAXXZ
	?_Xlength@?$vector@DV?$allocator@D@std@@@std@@CAXXZ
	?_Xlength@?$vector@HV?$allocator@H@std@@@std@@CAXXZ
	?_Xlength@?$vector@IV?$allocator@I@std@@@std@@CAXXZ
	?_Xlength@?$vector@MV?$allocator@M@std@@@std@@CAXXZ
	?_Xlength@?$vector@NV?$allocator@N@std@@@std@@CAXXZ
	?_Xlength@?$vector@PEAUHINSTANCE__@@V?$allocator@PEAUHINSTANCE__@@@std@@@std@@CAXXZ
	?_Xlength@?$vector@PEAUecl_file_kw_struct@@V?$allocator@PEAUecl_file_kw_struct@@@std@@@std@@CAXXZ
	?_Xlength@?$vector@PEAUecl_file_view_struct@@V?$allocator@PEAUecl_file_view_struct@@@std@@@std@@CAXXZ
	?_Xlength@?$vector@PEAUecl_grav_phase_struct@@V?$allocator@PEAUecl_grav_phase_struct@@@std@@@std@@CAXXZ
	?_Xlength@?$vector@PEAUecl_rft_cell_struct@@V?$allocator@PEAUecl_rft_cell_struct@@@std@@@std@@CAXXZ
	?_Xlength@?$vector@PEAUecl_rft_node_struct@@V?$allocator@PEAUecl_rft_node_struct@@@std@@@std@@CAXXZ
	?_Xlength@?$vector@PEAUwell_conn_struct@@V?$allocator@PEAUwell_conn_struct@@@std@@@std@@CAXXZ
	?_Xlength@?$vector@PEAUwell_node_type@@V?$allocator@PEAUwell_node_type@@@std@@@std@@CAXXZ
	?_Xlength@?$vector@PEAUwell_segment_struct@@V?$allocator@PEAUwell_segment_struct@@@std@@@std@@CAXXZ
	?_Xlength@?$vector@PEAVecl_sum_file_data@ecl@@V?$allocator@PEAVecl_sum_file_data@ecl@@@std@@@std@@CAXXZ
	?_Xlength@?$vector@PEAXV?$allocator@PEAX@std@@@std@@CAXXZ
	?_Xlength@?$vector@U?$pair@HH@std@@V?$allocator@U?$pair@HH@std@@@2@@std@@CAXXZ
	?_Xlength@?$vector@U?$pair@IV?$basic_string@DU?$char_traits@D@std@@V?$allocator@D@2@@std@@@std@@V?$allocator@U?$pair@IV?$basic_string@DU?$char_traits@D@std@@V?$allocator@D@2@@std@@@std@@@2@@std@@CAXXZ
	?_Xlength@?$vector@UIndexNode@ecl@@V?$allocator@UIndexNode@ecl@@@std@@@std@@CAXXZ
	?_Xlength@?$vector@Uecl_nnc_pair_struct@@V?$allocator@Uecl_nnc_pair_struct@@@std@@@std@@CAXXZ
	?_Xlength@?$vector@Uint_point2d_type@@V?$allocator@Uint_point2d_type@@@std@@@std@@CAXXZ
	?_Xlength@?$vector@Umodule_data@backward@@V?$allocator@Umodule_data@backward@@@std@@@std@@CAXXZ
	?_Xlength@?$vector@V?$basic_string@DU?$char_traits@D@std@@V?$allocator@D@2@@std@@V?$allocator@V?$basic_string@DU?$char_traits@D@std@@V?$allocator@D@2@@std@@@2@@std@@CAXXZ
	?_Xlength@?$vector@V?$unique_ptr@Vsmspec_node@ecl@@U?$default_delete@Vsmspec_node@ecl@@@std@@@std@@V?$allocator@V?$unique_ptr@Vsmspec_node@ecl@@U?$default_delete@Vsmspec_node@ecl@@@std@@@std@@@2@@std@@CAXXZ
	?_Xlength@?$vector@_JV?$allocator@_J@std@@@std@@CAXXZ
	?_Xran@?$_String_val@U?$_Simple_types@D@std@@@std@@SAXXZ
	?active_list@ecl_box@ecl@@QEBAAEBV?$vector@HV?$allocator@H@std@@@std@@XZ
	?add@TimeIndex@ecl@@QEAAX_JNH@Z
	?add_ecl_file@ecl_sum_file_data@ecl@@AEAAXHPEBUecl_file_view_struct@@@Z
	?add_new_tstep@ecl_sum_file_data@ecl@@QEAAPEAUecl_sum_tstep_struct@@HN@Z
	?allocate@?$allocator@D@std@@QEAAPEAD_K@Z
	?allocate@?$allocator@H@std@@QEAAPEAH_K@Z
	?allocate@?$allocator@M@std@@QEAAPEAM_K@Z
	?allocate@?$allocator@N@std@@QEAAPEAN_K@Z
	?allocate@?$allocator@PEAUHINSTANCE__@@@std@@QEAAPEAPEAUHINSTANCE__@@_K@Z
	?allocate@?$allocator@PEAX@std@@QEAAPEAPEAX_K@Z
	?allocate@?$allocator@U?$pair@IV?$basic_string@DU?$char_traits@D@std@@V?$allocator@D@2@@std@@@std@@@std@@QEAAPEAU?$pair@IV?$basic_string@DU?$char_traits@D@std@@V?$allocator@D@2@@std@@@2@_K@Z
	?append@?$basic_string@DU?$char_traits@D@std@@V?$allocator@D@2@@std@@QEAAAEAV12@QEBD_K@Z
	?append_tstep@ecl_sum_file_data@ecl@@AEAAXPEAUecl_sum_tstep_struct@@@Z
	?assign@?$basic_string@DU?$char_traits@D@std@@V?$allocator@D@2@@std@@QEAAAEAV12@QEBD_K@Z
	?assign@?$basic_string@DU?$char_traits@D@std@@V?$allocator@D@2@@std@@QEAAAEAV12@_KD@Z
	?basename@path@util@ecl@@YA?AV?$basic_string@DU?$char_traits@D@std@@V?$allocator@D@2@@std@@AEBV45@@Z
	?buffer_fread_char@@YADPEAUbuffer_struct@@@Z
	?build_index@ecl_sum_file_data@ecl@@AEAAXXZ
	?c_str@?$basic_string@DU?$char_traits@D@std@@V?$allocator@D@2@@std@@QEBAPEBDXZ
	?can_write@ecl_sum_file_data@ecl@@QEBA_NXZ
	?check_file@ecl_sum_file_data@ecl@@AEAA_NPEAUecl_file_struct@@@Z
	?close@FortIO@ERT@@QEAAXXZ
	?cmp@smspec_node@ecl@@QEBAHAEBV12@@Z
	?cmp@smspec_node@ecl@@SAHAEBV12@0@Z
	?deallocate@?$allocator@D@std@@QEAAXQEAD_K@Z
	?deallocate@?$allocator@H@std@@QEAAXQEAH_K@Z
	?deallocate@?$allocator@I@std@@QEAAXQEAI_K@Z
	?deallocate@?$allocator@M@std@@QEAAXQEAM_K@Z
	?deallocate@?$allocator@N@std@@QEAAXQEAN_K@Z
	?deallocate@?$allocator@PEAUHINSTANCE__@@@std@@QEAAXQEAPEAUHINSTANCE__@@_K@Z
	?deallocate@?$allocator@PEAUecl_file_kw_struct@@@std@@QEAAXQEAPEAUecl_file_kw_struct@@_K@Z
	?deallocate@?$allocator@PEAUecl_file_view_struct@@@std@@QEAAXQEAPEAUecl_file_view_struct@@_K@Z
	?deallocate@?$allocator@PEAUecl_grav_phase_struct@@@std@@QEAAXQEAPEAUecl_grav_phase_struct@@_K@Z
	?deallocate@?$allocator@PEAUecl_rft_cell_struct@@@std@@QEAAXQEAPEAUecl_rft_cell_struct@@_K@Z
	?deallocate@?$allocator@PEAUecl_rft_node_struct@@@std@@QEAAXQEAPEAUecl_rft_node_struct@@_K@Z
	?deallocate@?$allocator@PEAUwell_conn_struct@@@std@@QEAAXQEAPEAUwell_conn_struct@@_K@Z
	?deallocate@?$allocator@PEAUwell_node_type@@@std@@QEAAXQEAPEAUwell_node_type@@_K@Z
	?deallocate@?$allocator@PEAUwell_segment_struct@@@std@@QEAAXQEAPEAUwell_segment_struct@@_K@Z
	?deallocate@?$allocator@PEAVecl_sum_file_data@ecl@@@std@@QEAAXQEAPEAVecl_sum_file_data@ecl@@_K@Z
	?deallocate@?$allocator@PEAX@std@@QEAAXQEAPEAX_K@Z
	?deallocate@?$allocator@U?$pair@HH@std@@@std@@QEAAXQEAU?$pair@HH@2@_K@Z
	?deallocate@?$allocator@U?$pair@IV?$basic_string@DU?$char_traits@D@std@@V?$allocator@D@2@@std@@@std@@@std@@QEAAXQEAU?$pair@IV?$basic_string@DU?$char_traits@D@std@@V?$allocator@D@2@@std@@@2@_K@Z
	?deallocate@?$allocator@UIndexNode@ecl@@@std@@QEAAXQEAUIndexNode@ecl@@_K@Z
	?deallocate@?$allocator@Uecl_nnc_pair_struct@@@std@@QEAAXQEAUecl_nnc_pair_struct@@_K@Z
	?deallocate@?$allocator@Uint_point2d_type@@@std@@QEAAXQEAUint_point2d_type@@_K@Z
	?deallocate@?$allocator@Umodule_data@backward@@@std@@QEAAXQEAUmodule_data@backward@@_K@Z
	?deallocate@?$allocator@V?$basic_string@DU?$char_traits@D@std@@V?$allocator@D@2@@std@@@std@@QEAAXQEAV?$basic_string@DU?$char_traits@D@std@@V?$allocator@D@2@@2@_K@Z
	?deallocate@?$allocator@V?$unique_ptr@Vsmspec_node@ecl@@U?$default_delete@Vsmspec_node@ecl@@@std@@@std@@@std@@QEAAXQEAV?$unique_ptr@Vsmspec_node@ecl@@U?$default_delete@Vsmspec_node@ecl@@@std@@@2@_K@Z
	?deallocate@?$allocator@_J@std@@QEAAXQEA_J_K@Z
	?decode_R1R2@smspec_node@ecl@@AEBAXPEAH0@Z
	?dirname@path@util@ecl@@YA?AV?$basic_string@DU?$char_traits@D@std@@V?$allocator@D@2@@std@@AEBV45@@Z
	?ecl_coarse_cell_assert@@YAXPEAUecl_coarse_cell_struct@@@Z
	?ecl_file_alloc_empty@@YAPEAUecl_file_struct@@H@Z
	?ecl_file_alloc_global_blockview2@@YAPEAUecl_file_view_struct@@PEAUecl_file_struct@@PEBD1H@Z
	?ecl_file_kw_is_instance@@YA_NPEBX@Z
	?ecl_file_safe_cast@@YAPEAUecl_file_struct@@PEAX@Z
	?ecl_file_select_global@@YAXPEAUecl_file_struct@@@Z
	?ecl_file_view_has_sim_days@@YA_NPEBUecl_file_view_struct@@N@Z
	?ecl_file_view_seqnum_index_from_sim_days@@YAHPEAUecl_file_view_struct@@N@Z
	?ecl_grav_phase_deltag@@YANNNNPEBUecl_grid_struct@@PEBUecl_file_struct@@PEBUecl_kw_struct@@22222@Z
	?ecl_grid_alloc_GRDECL_data@ecl@@YAPEAUecl_grid_struct@@HHHPEBN0PEBH_NPEBM@Z
	?ecl_grid_alloc__@@YAPEAUecl_grid_struct@@PEBD_N@Z
	?ecl_grid_alloc_coord_data@@YAPEAMPEBUecl_grid_struct@@@Z
	?ecl_grid_alloc_corsnum_data@@YAPEAHPEBUecl_grid_struct@@@Z
	?ecl_grid_alloc_corsnum_kw@@YAPEAUecl_kw_struct@@PEBUecl_grid_struct@@@Z
	?ecl_grid_alloc_hostnum_data@@YAPEAHPEBUecl_grid_struct@@@Z
	?ecl_grid_assert_coord_kw@@YAXPEAUecl_grid_struct@@@Z
	?ecl_grid_file_dims@@YA_NPEBD0PEAH@Z
	?ecl_grid_get_mapaxes_from_kw__@@YAPEBMPEBUecl_kw_struct@@@Z
	?ecl_grid_get_region_cells@@YAHPEBUecl_grid_struct@@PEBUecl_kw_struct@@H_N2PEAUint_vector_struct@@@Z
	?ecl_grid_init_GRDECL_data@@YAXPEAUecl_grid_struct@@PEBM1PEBH2@Z
	?ecl_grid_init_GRDECL_data@@YAXPEAUecl_grid_struct@@PEBN1PEBH2@Z
	?ecl_kw_double_max@@YANPEBUecl_kw_struct@@@Z
	?ecl_kw_double_min@@YANPEBUecl_kw_struct@@@Z
	?ecl_kw_float_max@@YAMPEBUecl_kw_struct@@@Z
	?ecl_kw_float_min@@YAMPEBUecl_kw_struct@@@Z
	?ecl_kw_fwrite_header@@YAXPEBUecl_kw_struct@@PEAUfortio_struct@@@Z
	?ecl_kw_ifseek_kw@@YA_NPEBDPEAUfortio_struct@@H@Z
	?ecl_kw_inplace_abs_double@@YAXPEAUecl_kw_struct@@@Z
	?ecl_kw_inplace_abs_float@@YAXPEAUecl_kw_struct@@@Z
	?ecl_kw_inplace_abs_int@@YAXPEAUecl_kw_struct@@@Z
	?ecl_kw_inplace_div_double@@YAXPEAUecl_kw_struct@@PEBU1@@Z
	?ecl_kw_inplace_div_float@@YAXPEAUecl_kw_struct@@PEBU1@@Z
	?ecl_kw_inplace_div_int@@YAXPEAUecl_kw_struct@@PEBU1@@Z
	?ecl_kw_inplace_mul_double@@YAXPEAUecl_kw_struct@@PEBU1@@Z
	?ecl_kw_inplace_mul_float@@YAXPEAUecl_kw_struct@@PEBU1@@Z
	?ecl_kw_inplace_mul_int@@YAXPEAUecl_kw_struct@@PEBU1@@Z
	?ecl_kw_inplace_sqrt_double@@YAXPEAUecl_kw_struct@@@Z
	?ecl_kw_inplace_sqrt_float@@YAXPEAUecl_kw_struct@@@Z
	?ecl_kw_inplace_sqrt_int@@YAXPEAUecl_kw_struct@@@Z
	?ecl_kw_inplace_sub_double@@YAXPEAUecl_kw_struct@@PEBU1@@Z
	?ecl_kw_inplace_sub_float@@YAXPEAUecl_kw_struct@@PEBU1@@Z
	?ecl_kw_inplace_sub_int@@YAXPEAUecl_kw_struct@@PEBU1@@Z
	?ecl_kw_int_max@@YAHPEBUecl_kw_struct@@@Z
	?ecl_kw_int_min@@YAHPEBUecl_kw_struct@@@Z
	?ecl_kw_set_data_type@@YAXPEAUecl_kw_struct@@Uecl_type_struct@@@Z
	?ecl_region_deselect_cell@@YAXPEAUecl_region_struct@@HHH@Z
	?ecl_region_select_cell@@YAXPEAUecl_region_struct@@HHH@Z
	?ecl_rft_file_is_instance@@YA_NPEBX@Z
	?ecl_rft_file_safe_cast@@YAPEAUecl_rft_file_struct@@PEAX@Z
	?ecl_rft_node_is_instance@@YA_NPEBX@Z
	?ecl_rft_node_safe_cast@@YAPEAUecl_rft_node_struct@@PEAX@Z
	?ecl_smspec_add_node@@YAPEBVsmspec_node@ecl@@PEAUecl_smspec_struct@@AEBV12@@Z
	?ecl_smspec_add_node@@YAPEBVsmspec_node@ecl@@PEAUecl_smspec_struct@@HPEBD1H11HHHM@Z
	?ecl_smspec_add_node@@YAPEBVsmspec_node@ecl@@PEAUecl_smspec_struct@@HPEBD1H1M@Z
	?ecl_smspec_add_node@@YAPEBVsmspec_node@ecl@@PEAUecl_smspec_struct@@PEBD11M@Z
	?ecl_smspec_add_node@@YAPEBVsmspec_node@ecl@@PEAUecl_smspec_struct@@PEBD1H1M@Z
	?ecl_smspec_add_node@@YAPEBVsmspec_node@ecl@@PEAUecl_smspec_struct@@PEBD1M@Z
	?ecl_smspec_add_node@@YAPEBVsmspec_node@ecl@@PEAUecl_smspec_struct@@PEBDH1M@Z
	?ecl_smspec_free__@@YAXPEAX@Z
	?ecl_smspec_general_is_total@@YA_NPEBUecl_smspec_struct@@PEBD@Z
	?ecl_smspec_get_block_var_node@@YAAEBVsmspec_node@ecl@@PEBUecl_smspec_struct@@PEBDH@Z
	?ecl_smspec_get_block_var_node_ijk@@YAAEBVsmspec_node@ecl@@PEBUecl_smspec_struct@@PEBDHHH@Z
	?ecl_smspec_get_field_var_node@@YAAEBVsmspec_node@ecl@@PEBUecl_smspec_struct@@PEBD@Z
	?ecl_smspec_get_general_var_node@@YAAEBVsmspec_node@ecl@@PEBUecl_smspec_struct@@PEBD@Z
	?ecl_smspec_get_group_var_node@@YAAEBVsmspec_node@ecl@@PEBUecl_smspec_struct@@PEBD1@Z
	?ecl_smspec_get_misc_var_node@@YAAEBVsmspec_node@ecl@@PEBUecl_smspec_struct@@PEBD@Z
	?ecl_smspec_get_num_groups@@YAHPEBUecl_smspec_struct@@@Z
	?ecl_smspec_get_num_regions@@YAHPEBUecl_smspec_struct@@@Z
	?ecl_smspec_get_params_default@@YAAEBV?$vector@MV?$allocator@M@std@@@std@@PEBUecl_smspec_struct@@@Z
	?ecl_smspec_get_region_var_node@@YAAEBVsmspec_node@ecl@@PEBUecl_smspec_struct@@PEBDH@Z
	?ecl_smspec_get_well_completion_var_node@@YAAEBVsmspec_node@ecl@@PEBUecl_smspec_struct@@PEBD1H@Z
	?ecl_smspec_get_well_completion_var_node__@@YAPEBVsmspec_node@ecl@@PEBUecl_smspec_struct@@PEBD1H@Z
	?ecl_smspec_get_well_var_node@@YAAEBVsmspec_node@ecl@@PEBUecl_smspec_struct@@PEBD1@Z
	?ecl_smspec_iget_node@@YAAEBVsmspec_node@ecl@@PEBUecl_smspec_struct@@H@Z
	?ecl_smspec_iget_node_w_node_index@@YAAEBVsmspec_node@ecl@@PEBUecl_smspec_struct@@H@Z
	?ecl_smspec_iget_node_w_params_index@@YAAEBVsmspec_node@ecl@@PEBUecl_smspec_struct@@H@Z
	?ecl_smspec_safe_cast@@YAPEAUecl_smspec_struct@@PEAX@Z
	?ecl_sum_data_alloc_param_mapping@@YAPEAHPEAH0_K@Z
	?ecl_sum_data_fread_alloc@@YAPEAUecl_sum_data_struct@@PEAUecl_smspec_struct@@PEBUstringlist_struct@@_N2H@Z
	?ecl_sum_data_get_index_from_sim_days@@YAHPEBUecl_sum_data_struct@@N@Z
	?ecl_sum_data_init_interp_from_sim_days@@YAXPEBUecl_sum_data_struct@@NPEAH1PEAN2@Z
	?ecl_sum_data_init_interp_from_sim_time@@YAXPEBUecl_sum_data_struct@@_JPEAH2PEAN3@Z
	?ecl_sum_data_init_time_vector@@YAXPEBUecl_sum_data_struct@@PEA_J@Z
	?ecl_sum_get_block_var_ijk_from_sim_days@@YANPEBUecl_sum_struct@@NPEBDHHH@Z
	?ecl_sum_get_block_var_ijk_from_sim_time@@YANPEBUecl_sum_struct@@_JPEBDHHH@Z
	?ecl_sum_get_group_var_from_sim_days@@YANPEBUecl_sum_struct@@NPEBD1@Z
	?ecl_sum_get_group_var_from_sim_time@@YANPEBUecl_sum_struct@@_JPEBD2@Z
	?ecl_sum_get_region_var_from_sim_days@@YANPEBUecl_sum_struct@@NPEBDH@Z
	?ecl_sum_get_region_var_from_sim_time@@YANPEBUecl_sum_struct@@_JPEBDH@Z
	?ecl_sum_init_double_vector__@@YAXPEBUecl_sum_struct@@HPEAN@Z
	?ecl_sum_safe_cast@@YAPEAUecl_sum_struct@@PEAX@Z
	?ecl_version_is_devel_version@@YA_NXZ
	?extension@path@util@ecl@@YA?AV?$basic_string@DU?$char_traits@D@std@@V?$allocator@D@2@@std@@AEBV45@@Z
	?fault_block_alloc@@YAPEAUfault_block_struct@@PEBUfault_block_layer_struct@@H@Z
	?fault_block_free@@YAXPEAUfault_block_struct@@@Z
	?fflush@FortIO@ERT@@QEBAXXZ
	?first_report@ecl_sum_file_data@ecl@@QEBAHXZ
	?fprintf__@smspec_node@ecl@@QEBAXPEAU_iobuf@@@Z
	?fread@ecl_sum_file_data@ecl@@QEAA_NPEBUstringlist_struct@@_NH@Z
	?ftruncate@FortIO@ERT@@QEAA_N_J@Z
	?fwrite_multiple@ecl_sum_file_data@ecl@@QEBAXPEBD_N@Z
	?fwrite_report@ecl_sum_file_data@ecl@@AEBAXHPEAUfortio_struct@@@Z
	?fwrite_unified@ecl_sum_file_data@ecl@@QEBAXPEAUfortio_struct@@@Z
	?get@FortIO@ERT@@QEBAPEAUfortio_struct@@XZ
	?get_R1@smspec_node@ecl@@QEBAHXZ
	?get_R2@smspec_node@ecl@@QEBAHXZ
	?get_data@ecl_sum_file_data@ecl@@QEAAXHHPEAN@Z
	?get_data_report@ecl_sum_file_data@ecl@@QEAAHHHPEANN@Z
	?get_data_start@ecl_sum_file_data@ecl@@QEBA_JXZ
	?get_days_start@ecl_sum_file_data@ecl@@QEBANXZ
	?get_default@smspec_node@ecl@@QEBAMXZ
	?get_gen_key1@smspec_node@ecl@@QEBAPEBDXZ
	?get_gen_key2@smspec_node@ecl@@QEBAPEBDXZ
	?get_ijk@smspec_node@ecl@@QEBAAEBV?$array@H$02@std@@XZ
	?get_keyword@smspec_node@ecl@@QEBAPEBDXZ
	?get_lgr_ijk@smspec_node@ecl@@QEBAAEBV?$array@H$02@std@@XZ
	?get_lgr_name@smspec_node@ecl@@QEBAPEBDXZ
	?get_lines@SourceFile@backward@@QEAA?AV?$vector@U?$pair@IV?$basic_string@DU?$char_traits@D@std@@V?$allocator@D@2@@std@@@std@@V?$allocator@U?$pair@IV?$basic_string@DU?$char_traits@D@std@@V?$allocator@D@2@@std@@@std@@@2@@std@@II@Z
	?get_lines@SourceFile@backward@@QEAAAEAV?$vector@U?$pair@IV?$basic_string@DU?$char_traits@D@std@@V?$allocator@D@2@@std@@@std@@V?$allocator@U?$pair@IV?$basic_string@DU?$char_traits@D@std@@V?$allocator@D@2@@std@@@std@@@2@@std@@IIAEAV34@@Z
	?get_num@smspec_node@ecl@@QEBAHXZ
	?get_params_index@smspec_node@ecl@@QEBAHXZ
	?get_paths_from_env_variable_impl@SourceFile@backward@@AEAA?AV?$vector@V?$basic_string@DU?$char_traits@D@std@@V?$allocator@D@2@@std@@V?$allocator@V?$basic_string@DU?$char_traits@D@std@@V?$allocator@D@2@@std@@@2@@std@@XZ
	?get_sim_end@ecl_sum_file_data@ecl@@QEBA_JXZ
	?get_sim_length@ecl_sum_file_data@ecl@@QEBANXZ
	?get_time@ecl_sum_file_data@ecl@@QEAAXHPEA_J@Z
	?get_time_report@ecl_sum_file_data@ecl@@QEAAHHPEA_J@Z
	?get_unit@smspec_node@ecl@@QEBAPEBDXZ
	?get_var_type@smspec_node@ecl@@QEBA?AW4ecl_smspec_var_type@@XZ
	?get_vector@unsmry_loader@ecl@@QEBA?AV?$vector@NV?$allocator@N@std@@@std@@H@Z
	?get_wgname@smspec_node@ecl@@QEBAPEBDXZ
	?has_report@ecl_sum_file_data@ecl@@QEBA_NH@Z
	?identify_special_var@smspec_node@ecl@@CA?AW4ecl_smspec_var_type@@PEBD@Z
	?identify_var_type@smspec_node@ecl@@SA?AW4ecl_smspec_var_type@@PEBD@Z
	?iget@ecl_sum_file_data@ecl@@QEBANHH@Z
	?iget@unsmry_loader@ecl@@QEBANHH@Z
	?iget_ministep@ecl_sum_file_data@ecl@@QEBAPEAUecl_sum_tstep_struct@@H@Z
	?iget_report@ecl_sum_file_data@ecl@@QEBAHH@Z
	?iget_sim_days@ecl_sum_file_data@ecl@@QEBANH@Z
	?iget_sim_seconds@ecl_sum_file_data@ecl@@QEBANH@Z
	?iget_sim_seconds@unsmry_loader@ecl@@QEBANH@Z
	?iget_sim_time@ecl_sum_file_data@ecl@@QEBA_JH@Z
	?iget_sim_time@unsmry_loader@ecl@@QEBA_JH@Z
	?imbue@?$basic_filebuf@DU?$char_traits@D@std@@@std@@MEAAXAEBVlocale@2@@Z
	?is_historical@smspec_node@ecl@@QEBA_NXZ
	?is_rate@smspec_node@ecl@@QEBA_NXZ
	?is_total@smspec_node@ecl@@QEBA_NXZ
	?last_report@ecl_sum_file_data@ecl@@QEBAHXZ
	?layer_trace_block_edge@@YA_NPEBUlayer_struct@@HHHAEAV?$vector@Uint_point2d_type@@V?$allocator@Uint_point2d_type@@@std@@@std@@PEAUint_vector_struct@@@Z
	?left@std@@YAAEAVios_base@1@AEAV21@@Z
	?length@ecl_sum_file_data@ecl@@QEBAHXZ
	?length@unsmry_loader@ecl@@QEBAHXZ
	?length_before@ecl_sum_file_data@ecl@@QEBAH_J@Z
	?load_addresses@TraceResolverImplBase@backward@@UEAAXPEBQEAXH@Z
	?load_here@?$StackTraceImpl@Uwindows_tag@system_tag@backward@@@backward@@QEAA_K_KPEAX1@Z
	?need_nums@smspec_node@ecl@@QEBA_NXZ
	?nnc_info_get_grid_index_list@@YAAEBV?$vector@HV?$allocator@H@std@@@std@@PEBUnnc_info_struct@@H@Z
	?nnc_info_get_self_grid_index_list@@YAAEBV?$vector@HV?$allocator@H@std@@@std@@PEBUnnc_info_struct@@@Z
	?nnc_info_iget_grid_index_list@@YAAEBV?$vector@HV?$allocator@H@std@@@std@@PEBUnnc_info_struct@@H@Z
	?nnc_vector_get_grid_index_list@@YAAEBV?$vector@HV?$allocator@H@std@@@std@@PEBUnnc_vector_struct@@@Z
	?nnc_vector_get_nnc_index_list@@YAAEBV?$vector@HV?$allocator@H@std@@@std@@PEBUnnc_vector_struct@@@Z
	?open@FortIO@ERT@@QEAAXAEBV?$basic_string@DU?$char_traits@D@std@@V?$allocator@D@2@@std@@H_N1@Z
	?overflow@?$basic_filebuf@DU?$char_traits@D@std@@@std@@MEAAHH@Z
	?overflow@?$basic_stringbuf@DU?$char_traits@D@std@@V?$allocator@D@2@@std@@MEAAHH@Z
	?pbackfail@?$basic_filebuf@DU?$char_traits@D@std@@@std@@MEAAHH@Z
	?pbackfail@?$basic_stringbuf@DU?$char_traits@D@std@@V?$allocator@D@2@@std@@MEAAHH@Z
	?print_snippet@Printer@backward@@AEAAXAEAV?$basic_ostream@DU?$char_traits@D@std@@@std@@PEBDAEBUSourceLoc@ResolvedTrace@2@AEAVColorize@2@W4type@Color@2@H@Z
	?print_source_loc@Printer@backward@@AEAAXAEAV?$basic_ostream@DU?$char_traits@D@std@@@std@@PEBDAEBUSourceLoc@ResolvedTrace@2@PEAX@Z
	?print_trace@Printer@backward@@AEAAXAEAV?$basic_ostream@DU?$char_traits@D@std@@@std@@AEBUResolvedTrace@2@AEAVColorize@2@@Z
	?push_back@?$vector@_NV?$allocator@_N@std@@@std@@QEAAXAEB_N@Z
	?report_before@ecl_sum_file_data@ecl@@QEBAH_J@Z
	?report_range@ecl_sum_file_data@ecl@@QEBA?AU?$pair@HH@std@@H@Z
	?report_step_equal@ecl_sum_file_data@ecl@@QEBA_NAEBV12@_N@Z
	?report_step_from_days@ecl_sum_file_data@ecl@@QEBAHN@Z
	?report_step_from_time@ecl_sum_file_data@ecl@@QEBAH_J@Z
	?report_steps@unsmry_loader@ecl@@QEBA?AV?$vector@HV?$allocator@H@std@@@std@@H@Z
	?resize@?$vector@MV?$allocator@M@std@@@std@@QEAAX_K@Z
	?resolve@?$TraceResolverImpl@Uwindows_tag@system_tag@backward@@@backward@@UEAA?AUResolvedTrace@2@U32@@Z
	?resolve@TraceResolverImplBase@backward@@UEAA?AUResolvedTrace@2@U32@@Z
	?right@std@@YAAEAVios_base@1@AEAV21@@Z
	?seekoff@?$basic_filebuf@DU?$char_traits@D@std@@@std@@MEAA?AV?$fpos@U_Mbstatet@@@2@_JHH@Z
	?seekoff@?$basic_stringbuf@DU?$char_traits@D@std@@V?$allocator@D@2@@std@@MEAA?AV?$fpos@U_Mbstatet@@@2@_JHH@Z
	?seekpos@?$basic_filebuf@DU?$char_traits@D@std@@@std@@MEAA?AV?$fpos@U_Mbstatet@@@2@V32@H@Z
	?seekpos@?$basic_stringbuf@DU?$char_traits@D@std@@V?$allocator@D@2@@std@@MEAA?AV?$fpos@U_Mbstatet@@@2@V32@H@Z
	?set_gen_keys@smspec_node@ecl@@AEAAXPEBD@Z
	?set_lgr_ijk@smspec_node@ecl@@AEAAXHHH@Z
	?set_num@smspec_node@ecl@@AEAAXQEBHH@Z
	?set_wgname@smspec_node@ecl@@AEAAXPEBD@Z
	?setbuf@?$basic_filebuf@DU?$char_traits@D@std@@@std@@MEAAPEAV?$basic_streambuf@DU?$char_traits@D@std@@@2@PEAD_J@Z
	?sim_seconds@unsmry_loader@ecl@@QEBA?AV?$vector@NV?$allocator@N@std@@@std@@XZ
	?sim_time@unsmry_loader@ecl@@QEBA?AV?$vector@_JV?$allocator@_J@std@@@std@@XZ
	?smspec@ecl_sum_file_data@ecl@@QEBAPEBUecl_smspec_struct@@XZ
	?smspec_alloc_aquifer_key@@YA?AV?$basic_string@DU?$char_traits@D@std@@V?$allocator@D@2@@std@@PEBDAEBV12@H@Z
	?smspec_alloc_block_ijk_key@@YA?AV?$basic_string@DU?$char_traits@D@std@@V?$allocator@D@2@@std@@PEBDAEBV12@HHH@Z
	?smspec_alloc_block_num_key@@YA?AV?$basic_string@DU?$char_traits@D@std@@V?$allocator@D@2@@std@@PEBDAEBV12@H@Z
	?smspec_alloc_completion_ijk_key@@YAPEADPEBDAEBV?$basic_string@DU?$char_traits@D@std@@V?$allocator@D@2@@std@@1HHH@Z
	?smspec_alloc_completion_num_key@@YAPEADPEBDAEBV?$basic_string@DU?$char_traits@D@std@@V?$allocator@D@2@@std@@1H@Z
	?smspec_alloc_group_key@@YA?AV?$basic_string@DU?$char_traits@D@std@@V?$allocator@D@2@@std@@PEBDAEBV12@1@Z
	?smspec_alloc_local_block_key@@YA?AV?$basic_string@DU?$char_traits@D@std@@V?$allocator@D@2@@std@@PEBDAEBV12@1HHH@Z
	?smspec_alloc_local_completion_key@@YAPEADPEBDAEBV?$basic_string@DU?$char_traits@D@std@@V?$allocator@D@2@@std@@11HHH@Z
	?smspec_alloc_local_well_key@@YAPEADPEBDAEBV?$basic_string@DU?$char_traits@D@std@@V?$allocator@D@2@@std@@11@Z
	?smspec_alloc_region_2_region_num_key@@YA?AV?$basic_string@DU?$char_traits@D@std@@V?$allocator@D@2@@std@@PEBDAEBV12@H@Z
	?smspec_alloc_region_2_region_r1r2_key@@YA?AV?$basic_string@DU?$char_traits@D@std@@V?$allocator@D@2@@std@@PEBDAEBV12@HH@Z
	?smspec_alloc_region_key@@YA?AV?$basic_string@DU?$char_traits@D@std@@V?$allocator@D@2@@std@@PEBDAEBV12@H@Z
	?smspec_alloc_segment_key@@YAPEADPEBDAEBV?$basic_string@DU?$char_traits@D@std@@V?$allocator@D@2@@std@@1H@Z
	?smspec_alloc_well_key@@YA?AV?$basic_string@DU?$char_traits@D@std@@V?$allocator@D@2@@std@@PEBDAEBV12@1@Z
	?split_source_prefixes@details@backward@@YA?AV?$vector@V?$basic_string@DU?$char_traits@D@std@@V?$allocator@D@2@@std@@V?$allocator@V?$basic_string@DU?$char_traits@D@std@@V?$allocator@D@2@@std@@@2@@std@@AEBV?$basic_string@DU?$char_traits@D@std@@V?$allocator@D@2@@4@@Z
	?string_format@util@ecl@@YA?AV?$basic_string@DU?$char_traits@D@std@@V?$allocator@D@2@@std@@PEBDZZ
	?sync@?$basic_filebuf@DU?$char_traits@D@std@@@std@@MEAAHXZ
	?test_assert_float_not_equal__@@YAXMMPEBDH@Z
	?to_string@std@@YA?AV?$basic_string@DU?$char_traits@D@std@@V?$allocator@D@2@@1@H@Z
	?uflow@?$basic_filebuf@DU?$char_traits@D@std@@@std@@MEAAHXZ
	?underflow@?$basic_filebuf@DU?$char_traits@D@std@@@std@@MEAAHXZ
	?underflow@?$basic_stringbuf@DU?$char_traits@D@std@@V?$allocator@D@2@@std@@MEAAHXZ
	?util_alloc_link_target@@YAPEADPEBD@Z
	?util_endian_flip_vector_old@@YAXPEAXHH@Z
	?util_fwrite_char_vector@@YAXPEBDHPEAU_iobuf@@0@Z
	?valid_type@smspec_node@ecl@@SA?AW4ecl_smspec_var_type@@PEBD0H@Z
	?vector_push_copy@@YAXPEAUvector_struct@@PEBXP6APEAX1@ZP6AXPEAX@Z@Z
	?volume@ecl_grid_cache@ecl@@QEBAAEBV?$vector@NV?$allocator@N@std@@@std@@XZ
	?well_info_get_well_size@@YAHPEBUwell_info_struct@@PEBD@Z
	?well_state_add_wellhead@@YAXPEAUwell_state_struct@@PEBUecl_rsthead_type@@PEBUecl_kw_struct@@HPEBDH@Z
	?well_state_has_named_well_conn@@YA_NPEBUwell_state_struct@@PEBD@Z
	?what@exception@std@@UEBAPEBDXZ
	?xsgetn@?$basic_filebuf@DU?$char_traits@D@std@@@std@@MEAA_JPEAD_J@Z
	?xsputn@?$basic_filebuf@DU?$char_traits@D@std@@@std@@MEAA_JPEBD_J@Z
	__local_stdio_printf_options
	__local_stdio_scanf_options
	basic_parser_alloc
	basic_parser_fread_alloc_file_content
	basic_parser_free
	basic_parser_fseek_string
	basic_parser_set_comment_end
	basic_parser_set_comment_start
	basic_parser_set_delete_set
	basic_parser_set_quoters
	basic_parser_set_specials
	basic_parser_set_splitters
	basic_parser_strip_buffer
	basic_parser_tokenize_buffer
	basic_parser_tokenize_file
	bool_vector_alloc
	bool_vector_alloc_active_index_list
	bool_vector_alloc_active_list
	bool_vector_alloc_copy
	bool_vector_alloc_data_copy
	bool_vector_alloc_private_wrapper
	bool_vector_alloc_rsort_perm
	bool_vector_alloc_shared_wrapper
	bool_vector_alloc_sort_perm
	bool_vector_alloc_strided_copy
	bool_vector_append
	bool_vector_append_default
	bool_vector_append_many
	bool_vector_append_vector
	bool_vector_apply
	bool_vector_contains
	bool_vector_contains_sorted
	bool_vector_count_equal
	bool_vector_del_value
	bool_vector_div
	bool_vector_element_size
	bool_vector_equal
	bool_vector_first_equal
	bool_vector_first_not_equal
	bool_vector_fprintf
	bool_vector_fread
	bool_vector_fread_alloc
	bool_vector_fread_data
	bool_vector_free
	bool_vector_free__
	bool_vector_free_container
	bool_vector_free_data
	bool_vector_fwrite
	bool_vector_fwrite_data
	bool_vector_get_const_ptr
	bool_vector_get_default
	bool_vector_get_first
	bool_vector_get_last
	bool_vector_get_max
	bool_vector_get_max_index
	bool_vector_get_min
	bool_vector_get_min_index
	bool_vector_get_ptr
	bool_vector_get_read_only
	bool_vector_growable
	bool_vector_iadd
	bool_vector_idel
	bool_vector_idel_block
	bool_vector_iget
	bool_vector_imul
	bool_vector_index
	bool_vector_index_sorted
	bool_vector_init_linear
	bool_vector_init_range
	bool_vector_inplace_add
	bool_vector_inplace_div
	bool_vector_inplace_mul
	bool_vector_inplace_sub
	bool_vector_insert
	bool_vector_is_instance
	bool_vector_is_sorted
	bool_vector_iset
	bool_vector_iset_block
	bool_vector_iset_default
	bool_vector_lookup_bin
	bool_vector_lookup_bin__
	bool_vector_lshift
	bool_vector_memcpy
	bool_vector_memcpy_data
	bool_vector_memcpy_data_block
	bool_vector_memcpy_from_data
	bool_vector_permute
	bool_vector_pop
	bool_vector_range_fill
	bool_vector_reset
	bool_vector_reset__
	bool_vector_resize
	bool_vector_reverse_iget
	bool_vector_rshift
	bool_vector_rsort
	bool_vector_safe_cast
	bool_vector_safe_iget
	bool_vector_scale
	bool_vector_select_unique
	bool_vector_set_all
	bool_vector_set_default
	bool_vector_set_many
	bool_vector_set_read_only
	bool_vector_shift
	bool_vector_shrink
	bool_vector_size
	bool_vector_sort
	bool_vector_sum
	buffer_alloc
	buffer_alloc_data_copy
	buffer_alloc_private_wrapper
	buffer_clear
	buffer_fgetc
	buffer_fprintf
	buffer_fread
	buffer_fread_alloc
	buffer_fread_alloc_string
	buffer_fread_bool
	buffer_fread_double
	buffer_fread_int
	buffer_fread_long
	buffer_fread_realloc
	buffer_fread_string
	buffer_fread_time_t
	buffer_free
	buffer_free_container
	buffer_fseek
	buffer_fskip
	buffer_fskip_bool
	buffer_fskip_int
	buffer_fskip_long
	buffer_fskip_time_t
	buffer_fwrite
	buffer_fwrite_bool
	buffer_fwrite_char
	buffer_fwrite_char_ptr
	buffer_fwrite_double
	buffer_fwrite_int
	buffer_fwrite_string
	buffer_fwrite_time_t
	buffer_get_alloc_size
	buffer_get_data
	buffer_get_offset
	buffer_get_remaining_size
	buffer_get_size
	buffer_get_string_size
	buffer_iget_data
	buffer_is_instance
	buffer_memshift
	buffer_replace_data
	buffer_replace_string
	buffer_rewind
	buffer_safe_cast
	buffer_search_replace
	buffer_shrink_to_fit
	buffer_store
	buffer_strcat
	buffer_strchr
	buffer_stream_fprintf
	buffer_stream_fread
	buffer_stream_fwrite
	buffer_stream_fwrite_n
	buffer_strstr
	buffer_summarize
	double_vector_alloc
	double_vector_alloc_copy
	double_vector_alloc_data_copy
	double_vector_alloc_private_wrapper
	double_vector_alloc_rsort_perm
	double_vector_alloc_shared_wrapper
	double_vector_alloc_sort_perm
	double_vector_alloc_strided_copy
	double_vector_append
	double_vector_append_default
	double_vector_append_many
	double_vector_append_vector
	double_vector_apply
	double_vector_approx_equal
	double_vector_contains
	double_vector_contains_sorted
	double_vector_count_equal
	double_vector_del_value
	double_vector_div
	double_vector_element_size
	double_vector_equal
	double_vector_first_equal
	double_vector_first_not_equal
	double_vector_fprintf
	double_vector_fread
	double_vector_fread_alloc
	double_vector_fread_data
	double_vector_free
	double_vector_free__
	double_vector_free_container
	double_vector_free_data
	double_vector_fwrite
	double_vector_fwrite_data
	double_vector_get_const_ptr
	double_vector_get_default
	double_vector_get_first
	double_vector_get_last
	double_vector_get_max
	double_vector_get_max_index
	double_vector_get_min
	double_vector_get_min_index
	double_vector_get_ptr
	double_vector_get_read_only
	double_vector_growable
	double_vector_iadd
	double_vector_idel
	double_vector_idel_block
	double_vector_iget
	double_vector_imul
	double_vector_index
	double_vector_index_sorted
	double_vector_init_linear
	double_vector_init_range
	double_vector_inplace_add
	double_vector_inplace_div
	double_vector_inplace_mul
	double_vector_inplace_sub
	double_vector_insert
	double_vector_is_instance
	double_vector_is_sorted
	double_vector_iset
	double_vector_iset_block
	double_vector_iset_default
	double_vector_lookup_bin
	double_vector_lookup_bin__
	double_vector_lshift
	double_vector_memcpy
	double_vector_memcpy_data
	double_vector_memcpy_data_block
	double_vector_memcpy_from_data
	double_vector_permute
	double_vector_pop
	double_vector_range_fill
	double_vector_reset
	double_vector_reset__
	double_vector_resize
	double_vector_reverse_iget
	double_vector_rshift
	double_vector_rsort
	double_vector_safe_cast
	double_vector_safe_iget
	double_vector_scale
	double_vector_select_unique
	double_vector_set_all
	double_vector_set_default
	double_vector_set_many
	double_vector_set_read_only
	double_vector_shift
	double_vector_shrink
	double_vector_size
	double_vector_sort
	double_vector_sum
	ecl_coarse_cell_alloc
	ecl_coarse_cell_equal
	ecl_coarse_cell_fprintf
	ecl_coarse_cell_free
	ecl_coarse_cell_free__
	ecl_coarse_cell_get_active_fracture_index
	ecl_coarse_cell_get_active_index
	ecl_coarse_cell_get_box_ptr
	ecl_coarse_cell_get_i1
	ecl_coarse_cell_get_i2
	ecl_coarse_cell_get_index_ptr
	ecl_coarse_cell_get_index_vector
	ecl_coarse_cell_get_j1
	ecl_coarse_cell_get_j2
	ecl_coarse_cell_get_k1
	ecl_coarse_cell_get_k2
	ecl_coarse_cell_get_num_active
	ecl_coarse_cell_get_size
	ecl_coarse_cell_iget_active_cell_index
	ecl_coarse_cell_iget_active_value
	ecl_coarse_cell_iget_cell_index
	ecl_coarse_cell_reset_active_index
	ecl_coarse_cell_update
	ecl_coarse_cell_update_index
	ecl_file_alloc_global_blockview
	ecl_file_close
	ecl_file_close_fortio_stream
	ecl_file_fast_open
	ecl_file_flags_set
	ecl_file_fortio_detach
	ecl_file_fprintf_kw_list
	ecl_file_free__
	ecl_file_fwrite
	ecl_file_fwrite_fortio
	ecl_file_get_active_view
	ecl_file_get_ecl_version
	ecl_file_get_flags
	ecl_file_get_global_blockview
	ecl_file_get_global_view
	ecl_file_get_num_distinct_kw
	ecl_file_get_num_named_kw
	ecl_file_get_phases
	ecl_file_get_restart_index
	ecl_file_get_restart_view
	ecl_file_get_size
	ecl_file_get_src_file
	ecl_file_get_summary_view
	ecl_file_has_kw
	ecl_file_has_kw_ptr
	ecl_file_has_report_step
	ecl_file_has_sim_time
	ecl_file_icopy_named_kw
	ecl_file_iget_data_type
	ecl_file_iget_distinct_kw
	ecl_file_iget_file_kw
	ecl_file_iget_header
	ecl_file_iget_kw
	ecl_file_iget_named_data_type
	ecl_file_iget_named_file_kw
	ecl_file_iget_named_kw
	ecl_file_iget_named_size
	ecl_file_iget_occurence
	ecl_file_iget_restart_sim_date
	ecl_file_iget_restart_sim_days
	ecl_file_iget_size
	ecl_file_index_valid
	ecl_file_indexed_read
	ecl_file_iopen_rstblock
	ecl_file_is_instance
	ecl_file_iselect_rstblock
	ecl_file_kw_alloc
	ecl_file_kw_alloc0
	ecl_file_kw_alloc_copy
	ecl_file_kw_end_transaction
	ecl_file_kw_equal
	ecl_file_kw_fread_alloc
	ecl_file_kw_fread_alloc_multiple
	ecl_file_kw_free
	ecl_file_kw_free__
	ecl_file_kw_fskip_data
	ecl_file_kw_fwrite
	ecl_file_kw_get_data_type
	ecl_file_kw_get_header
	ecl_file_kw_get_kw
	ecl_file_kw_get_kw_ptr
	ecl_file_kw_get_offset
	ecl_file_kw_get_size
	ecl_file_kw_inplace_fwrite
	ecl_file_kw_ptr_eq
	ecl_file_kw_replace_kw
	ecl_file_kw_start_transaction
	ecl_file_load_all
	ecl_file_open
	ecl_file_open_rstblock_report_step
	ecl_file_open_rstblock_sim_time
	ecl_file_pop_block
	ecl_file_push_block
	ecl_file_replace_kw
	ecl_file_save_kw
	ecl_file_select_block
	ecl_file_select_rstblock_report_step
	ecl_file_select_rstblock_sim_time
	ecl_file_set_flags
	ecl_file_subselect_block
	ecl_file_view_add_blockview
	ecl_file_view_add_blockview2
	ecl_file_view_add_flag
	ecl_file_view_add_kw
	ecl_file_view_add_restart_view
	ecl_file_view_add_summary_view
	ecl_file_view_alloc
	ecl_file_view_alloc_blockview
	ecl_file_view_alloc_blockview2
	ecl_file_view_check_flags
	ecl_file_view_drop_flag
	ecl_file_view_end_transaction
	ecl_file_view_fclose_stream
	ecl_file_view_find_kw_value
	ecl_file_view_find_sim_time
	ecl_file_view_flags_set
	ecl_file_view_fprintf_kw_list
	ecl_file_view_fread_alloc
	ecl_file_view_free
	ecl_file_view_free__
	ecl_file_view_fwrite
	ecl_file_view_get_global_index
	ecl_file_view_get_num_distinct_kw
	ecl_file_view_get_num_named_kw
	ecl_file_view_get_size
	ecl_file_view_get_src_file
	ecl_file_view_has_kw
	ecl_file_view_has_report_step
	ecl_file_view_has_sim_time
	ecl_file_view_iget_data_type
	ecl_file_view_iget_distinct_kw
	ecl_file_view_iget_file_kw
	ecl_file_view_iget_header
	ecl_file_view_iget_kw
	ecl_file_view_iget_named_data_type
	ecl_file_view_iget_named_file_kw
	ecl_file_view_iget_named_kw
	ecl_file_view_iget_named_size
	ecl_file_view_iget_occurence
	ecl_file_view_iget_restart_sim_date
	ecl_file_view_iget_restart_sim_days
	ecl_file_view_iget_size
	ecl_file_view_index_fload_kw
	ecl_file_view_load_all
	ecl_file_view_make_index
	ecl_file_view_replace_kw
	ecl_file_view_seqnum_index_from_sim_time
	ecl_file_view_start_transaction
	ecl_file_view_write_index
	ecl_file_writable
	ecl_file_write_index
	ecl_grav_add_std_density
	ecl_grav_add_survey_FIP
	ecl_grav_add_survey_PORMOD
	ecl_grav_add_survey_RFIP
	ecl_grav_add_survey_RPORV
	ecl_grav_alloc
	ecl_grav_common_alloc_aquifer_cell
	ecl_grav_common_eval_biot_savart
	ecl_grav_common_eval_geertsma
	ecl_grav_eval
	ecl_grav_free
	ecl_grav_new_std_density
	ecl_grid_add_self_nnc
	ecl_grid_add_self_nnc_list
	ecl_grid_alloc
	ecl_grid_alloc_EGRID
	ecl_grid_alloc_GRDECL_data
	ecl_grid_alloc_GRDECL_kw
	ecl_grid_alloc_GRID
	ecl_grid_alloc_GRID_data
	ecl_grid_alloc_actnum_data
	ecl_grid_alloc_actnum_kw
	ecl_grid_alloc_blocking_variables
	ecl_grid_alloc_case_filename
	ecl_grid_alloc_coord_kw
	ecl_grid_alloc_copy
	ecl_grid_alloc_dx_dy_dz_tops
	ecl_grid_alloc_dxv_dyv_dzv
	ecl_grid_alloc_dxv_dyv_dzv_depthz
	ecl_grid_alloc_ext_actnum
	ecl_grid_alloc_gridhead_kw
	ecl_grid_alloc_hostnum_kw
	ecl_grid_alloc_lgr_name_list
	ecl_grid_alloc_mapaxes_kw
	ecl_grid_alloc_processed_copy
	ecl_grid_alloc_rectangular
	ecl_grid_alloc_regular
	ecl_grid_alloc_volume_kw
	ecl_grid_alloc_zcorn_data
	ecl_grid_alloc_zcorn_kw
	ecl_grid_block_eval3d
	ecl_grid_block_value_3d
	ecl_grid_cell_active1
	ecl_grid_cell_active3
	ecl_grid_cell_contains_xyz1
	ecl_grid_cell_contains_xyz3
	ecl_grid_cell_in_coarse_group1
	ecl_grid_cell_in_coarse_group3
	ecl_grid_cell_invalid1
	ecl_grid_cell_invalid1A
	ecl_grid_cell_invalid3
	ecl_grid_cell_regular1
	ecl_grid_cell_regular3
	ecl_grid_cell_ri_export
	ecl_grid_cell_valid1
	ecl_grid_cell_valid1A
	ecl_grid_cell_valid3
	ecl_grid_compare
	ecl_grid_compressed_kw_copy
	ecl_grid_dims_alloc
	ecl_grid_dims_free
	ecl_grid_dims_get_num_grids
	ecl_grid_dims_iget_dims
	ecl_grid_dual_grid
	ecl_grid_dump
	ecl_grid_dump_ascii
	ecl_grid_dump_ascii_cell1
	ecl_grid_dump_ascii_cell3
	ecl_grid_exists
	ecl_grid_export_cell_corners1
	ecl_grid_export_data_as_double
	ecl_grid_export_data_as_int
	ecl_grid_export_index
	ecl_grid_export_position
	ecl_grid_export_volume
	ecl_grid_fprintf_grdecl
	ecl_grid_fprintf_grdecl2
	ecl_grid_free
	ecl_grid_free__
	ecl_grid_fwrite_EGRID
	ecl_grid_fwrite_EGRID2
	ecl_grid_fwrite_GRID
	ecl_grid_fwrite_GRID2
	ecl_grid_fwrite_depth
	ecl_grid_fwrite_dims
	ecl_grid_get_active_fracture_index1
	ecl_grid_get_active_fracture_index3
	ecl_grid_get_active_index1
	ecl_grid_get_active_index3
	ecl_grid_get_active_size
	ecl_grid_get_block_count3d
	ecl_grid_get_bottom1
	ecl_grid_get_bottom1A
	ecl_grid_get_bottom2
	ecl_grid_get_bottom3
	ecl_grid_get_cdepth1
	ecl_grid_get_cdepth1A
	ecl_grid_get_cdepth3
	ecl_grid_get_cell_coarse_group1
	ecl_grid_get_cell_coarse_group3
	ecl_grid_get_cell_corner_xyz1
	ecl_grid_get_cell_corner_xyz3
	ecl_grid_get_cell_dx1
	ecl_grid_get_cell_dx1A
	ecl_grid_get_cell_dx3
	ecl_grid_get_cell_dy1
	ecl_grid_get_cell_dy1A
	ecl_grid_get_cell_dy3
	ecl_grid_get_cell_dz1
	ecl_grid_get_cell_dz1A
	ecl_grid_get_cell_dz3
	ecl_grid_get_cell_lgr1
	ecl_grid_get_cell_lgr1A
	ecl_grid_get_cell_lgr3
	ecl_grid_get_cell_nnc_info1
	ecl_grid_get_cell_nnc_info3
	ecl_grid_get_cell_thickness1
	ecl_grid_get_cell_thickness1A
	ecl_grid_get_cell_thickness3
	ecl_grid_get_cell_twist1
	ecl_grid_get_cell_twist3
	ecl_grid_get_cell_volume1
	ecl_grid_get_cell_volume1A
	ecl_grid_get_cell_volume3
	ecl_grid_get_column_property
	ecl_grid_get_coord_size
	ecl_grid_get_corner_xyz
	ecl_grid_get_dims
	ecl_grid_get_distance
	ecl_grid_get_double_property
	ecl_grid_get_float_property
	ecl_grid_get_global_grid
	ecl_grid_get_global_index1A
	ecl_grid_get_global_index1F
	ecl_grid_get_global_index3
	ecl_grid_get_global_index_from_xy
	ecl_grid_get_global_index_from_xy_bottom
	ecl_grid_get_global_index_from_xy_top
	ecl_grid_get_global_index_from_xyz
	ecl_grid_get_global_size
	ecl_grid_get_ij_from_xy
	ecl_grid_get_ijk1
	ecl_grid_get_ijk1A
	ecl_grid_get_ijk_from_xyz
	ecl_grid_get_int_property
	ecl_grid_get_lgr
	ecl_grid_get_lgr_from_lgr_nr
	ecl_grid_get_lgr_name
	ecl_grid_get_lgr_nr
	ecl_grid_get_lgr_nr_from_name
	ecl_grid_get_nactive
	ecl_grid_get_nactive_fracture
	ecl_grid_get_name
	ecl_grid_get_num_coarse_groups
	ecl_grid_get_num_lgr
	ecl_grid_get_num_nnc
	ecl_grid_get_nx
	ecl_grid_get_ny
	ecl_grid_get_nz
	ecl_grid_get_parent_cell1
	ecl_grid_get_parent_cell3
	ecl_grid_get_property
	ecl_grid_get_top1
	ecl_grid_get_top1A
	ecl_grid_get_top2
	ecl_grid_get_top3
	ecl_grid_get_unit_system
	ecl_grid_get_xyz1
	ecl_grid_get_xyz1A
	ecl_grid_get_xyz3
	ecl_grid_get_zcorn_size
	ecl_grid_global_kw_copy
	ecl_grid_grdecl_fprintf_kw
	ecl_grid_has_lgr
	ecl_grid_has_lgr_nr
	ecl_grid_have_coarse_cells
	ecl_grid_iget_coarse_group
	ecl_grid_iget_dims
	ecl_grid_iget_lgr
	ecl_grid_iget_lgr_name
	ecl_grid_ijk_valid
	ecl_grid_init_actnum_data
	ecl_grid_init_blocking
	ecl_grid_init_coord_data
	ecl_grid_init_coord_data_double
	ecl_grid_init_mapaxes_data_double
	ecl_grid_init_zcorn_data
	ecl_grid_init_zcorn_data_double
	ecl_grid_is_instance
	ecl_grid_load_case
	ecl_grid_load_case__
	ecl_grid_locate_depth
	ecl_grid_reset_actnum
	ecl_grid_ri_export
	ecl_grid_safe_cast
	ecl_grid_summarize
	ecl_grid_test_lgr_consistency
	ecl_grid_use_mapaxes
	ecl_grid_zcorn_index
	ecl_grid_zcorn_index__
	ecl_init_file_fwrite_header
	ecl_io_config_alloc
	ecl_io_config_free
	ecl_io_config_get_formatted
	ecl_io_config_get_unified_restart
	ecl_io_config_get_unified_summary
	ecl_io_config_set_formatted
	ecl_io_config_set_unified_restart
	ecl_io_config_set_unified_summary
	ecl_kw_alloc
	ecl_kw_alloc_actnum
	ecl_kw_alloc_actnum_bitmask
	ecl_kw_alloc_copy
	ecl_kw_alloc_data
	ecl_kw_alloc_data_copy
	ecl_kw_alloc_double_data
	ecl_kw_alloc_empty
	ecl_kw_alloc_float_data
	ecl_kw_alloc_global_copy
	ecl_kw_alloc_new
	ecl_kw_alloc_new_shared
	ecl_kw_alloc_python
	ecl_kw_alloc_scatter_copy
	ecl_kw_alloc_slice_copy
	ecl_kw_alloc_sub_copy
	ecl_kw_assert_binary_double
	ecl_kw_assert_binary_float
	ecl_kw_assert_binary_int
	ecl_kw_block_equal
	ecl_kw_buffer_alloc
	ecl_kw_buffer_store
	ecl_kw_content_equal
	ecl_kw_copy_indexed
	ecl_kw_copyc__
	ecl_kw_data_equal
	ecl_kw_element_sum
	ecl_kw_element_sum_float
	ecl_kw_element_sum_indexed
	ecl_kw_element_sum_int
	ecl_kw_equal
	ecl_kw_first_different
	ecl_kw_fix_uninitialized
	ecl_kw_fortio_size
	ecl_kw_fprintf_data
	ecl_kw_fprintf_grdecl
	ecl_kw_fprintf_grdecl__
	ecl_kw_fread
	ecl_kw_fread_alloc
	ecl_kw_fread_data
	ecl_kw_fread_double_param
	ecl_kw_fread_header
	ecl_kw_fread_indexed_data
	ecl_kw_fread_indexed_data_python
	ecl_kw_fread_realloc
	ecl_kw_fread_realloc_data
	ecl_kw_free
	ecl_kw_free__
	ecl_kw_free_data
	ecl_kw_fscanf_alloc_current_grdecl
	ecl_kw_fscanf_alloc_current_grdecl__
	ecl_kw_fscanf_alloc_grdecl
	ecl_kw_fscanf_alloc_grdecl__
	ecl_kw_fscanf_alloc_grdecl_data
	ecl_kw_fscanf_alloc_grdecl_data__
	ecl_kw_fscanf_alloc_grdecl_dynamic
	ecl_kw_fscanf_alloc_grdecl_dynamic__
	ecl_kw_fscanf_alloc_grdecl_dynamic_python
	ecl_kw_fseek_kw
	ecl_kw_fseek_last_kw
	ecl_kw_fskip
	ecl_kw_fskip_data
	ecl_kw_fskip_data__
	ecl_kw_fskip_header
	ecl_kw_fwrite
	ecl_kw_fwrite_data
	ecl_kw_fwrite_param
	ecl_kw_fwrite_param_fortio
	ecl_kw_get_bool_ptr
	ecl_kw_get_data_as_double
	ecl_kw_get_data_as_float
	ecl_kw_get_data_type
	ecl_kw_get_data_type_python
	ecl_kw_get_double_ptr
	ecl_kw_get_float_ptr
	ecl_kw_get_header
	ecl_kw_get_header8
	ecl_kw_get_int_ptr
	ecl_kw_get_memcpy_data
	ecl_kw_get_memcpy_double_data
	ecl_kw_get_memcpy_float_data
	ecl_kw_get_memcpy_int_data
	ecl_kw_get_ptr
	ecl_kw_get_size
	ecl_kw_get_type
	ecl_kw_get_void_ptr
	ecl_kw_grdecl_alloc_next_header
	ecl_kw_grdecl_fseek_kw
	ecl_kw_grdecl_fseek_next_kw
	ecl_kw_header_eq
	ecl_kw_ichar_eq
	ecl_kw_icmp_string
	ecl_kw_iget
	ecl_kw_iget_as_double
	ecl_kw_iget_as_float
	ecl_kw_iget_bool
	ecl_kw_iget_char_ptr
	ecl_kw_iget_double
	ecl_kw_iget_float
	ecl_kw_iget_int
	ecl_kw_iget_ptr
	ecl_kw_iget_string_ptr
	ecl_kw_inplace_abs
	ecl_kw_inplace_add
	ecl_kw_inplace_add_indexed
	ecl_kw_inplace_add_squared
	ecl_kw_inplace_div
	ecl_kw_inplace_div_indexed
	ecl_kw_inplace_inv
	ecl_kw_inplace_mul
	ecl_kw_inplace_mul_indexed
	ecl_kw_inplace_safe_div
	ecl_kw_inplace_sqrt
	ecl_kw_inplace_sub
	ecl_kw_inplace_sub_indexed
	ecl_kw_inplace_update_file
	ecl_kw_is_instance
	ecl_kw_is_kw_file
	ecl_kw_iset
	ecl_kw_iset_bool
	ecl_kw_iset_char_ptr
	ecl_kw_iset_double
	ecl_kw_iset_float
	ecl_kw_iset_int
	ecl_kw_iset_string8
	ecl_kw_iset_string_ptr
	ecl_kw_max_min
	ecl_kw_max_min_double
	ecl_kw_max_min_float
	ecl_kw_max_min_int
	ecl_kw_memcpy
	ecl_kw_memcpy_data
	ecl_kw_name_equal
	ecl_kw_numeric_equal
	ecl_kw_resize
	ecl_kw_scalar_set__
	ecl_kw_scalar_set_bool
	ecl_kw_scalar_set_double
	ecl_kw_scalar_set_float
	ecl_kw_scalar_set_float_or_double
	ecl_kw_scalar_set_int
	ecl_kw_scale_double
	ecl_kw_scale_float
	ecl_kw_scale_float_or_double
	ecl_kw_scale_indexed_double
	ecl_kw_scale_indexed_float
	ecl_kw_scale_indexed_int
	ecl_kw_scale_int
	ecl_kw_set_data_ptr
	ecl_kw_set_header_name
	ecl_kw_set_indexed_double
	ecl_kw_set_indexed_float
	ecl_kw_set_indexed_int
	ecl_kw_set_memcpy_data
	ecl_kw_shift_double
	ecl_kw_shift_float
	ecl_kw_shift_float_or_double
	ecl_kw_shift_indexed_double
	ecl_kw_shift_indexed_float
	ecl_kw_shift_indexed_int
	ecl_kw_shift_int
	ecl_kw_size_and_numeric_type_equal
	ecl_kw_size_and_type_equal
	ecl_kw_summarize
	ecl_nnc_data_alloc_gas_flux
	ecl_nnc_data_alloc_oil_flux
	ecl_nnc_data_alloc_tran
	ecl_nnc_data_alloc_wat_flux
	ecl_nnc_data_free
	ecl_nnc_data_get_size
	ecl_nnc_data_get_values
	ecl_nnc_data_iget_value
	ecl_nnc_equal
	ecl_nnc_export
	ecl_nnc_export_get_size
	ecl_nnc_export_get_tran_kw
	ecl_nnc_export_get_tranll_kw
	ecl_nnc_export_get_tranx_kw
	ecl_nnc_geometry_alloc
	ecl_nnc_geometry_free
	ecl_nnc_geometry_iget
	ecl_nnc_geometry_is_instance
	ecl_nnc_geometry_same_kw
	ecl_nnc_geometry_size
	ecl_nnc_intersect_format
	ecl_nnc_sort
	ecl_nnc_sort_cmp
	ecl_region_alloc
	ecl_region_alloc_copy
	ecl_region_cmp_deselect_less
	ecl_region_cmp_deselect_more
	ecl_region_cmp_select_less
	ecl_region_cmp_select_more
	ecl_region_contains_active
	ecl_region_contains_global
	ecl_region_contains_ijk
	ecl_region_deselect_above_plane
	ecl_region_deselect_active_cells
	ecl_region_deselect_active_index
	ecl_region_deselect_all
	ecl_region_deselect_below_plane
	ecl_region_deselect_deep_cells
	ecl_region_deselect_equal
	ecl_region_deselect_false
	ecl_region_deselect_from_ijkbox
	ecl_region_deselect_from_layer
	ecl_region_deselect_global_index
	ecl_region_deselect_i1i2
	ecl_region_deselect_in_cylinder
	ecl_region_deselect_in_interval
	ecl_region_deselect_in_zcylinder
	ecl_region_deselect_inactive_cells
	ecl_region_deselect_inside_polygon
	ecl_region_deselect_j1j2
	ecl_region_deselect_k1k2
	ecl_region_deselect_large_cells
	ecl_region_deselect_larger
	ecl_region_deselect_outside_polygon
	ecl_region_deselect_shallow_cells
	ecl_region_deselect_small_cells
	ecl_region_deselect_smaller
	ecl_region_deselect_thick_cells
	ecl_region_deselect_thin_cells
	ecl_region_deselect_true
	ecl_region_equal
	ecl_region_free
	ecl_region_free__
	ecl_region_get_active_list
	ecl_region_get_active_list_cpp
	ecl_region_get_active_size_cpp
	ecl_region_get_global_active_list
	ecl_region_get_global_list
	ecl_region_get_global_list_cpp
	ecl_region_get_global_size_cpp
	ecl_region_get_kw_index_list
	ecl_region_get_name
	ecl_region_intersection
	ecl_region_invert_selection
	ecl_region_is_instance
	ecl_region_kw_copy
	ecl_region_kw_iadd
	ecl_region_kw_idiv
	ecl_region_kw_imul
	ecl_region_kw_isub
	ecl_region_lock
	ecl_region_reset
	ecl_region_safe_cast
	ecl_region_scale_kw_double
	ecl_region_scale_kw_float
	ecl_region_scale_kw_int
	ecl_region_select_above_plane
	ecl_region_select_active_cells
	ecl_region_select_active_index
	ecl_region_select_all
	ecl_region_select_below_plane
	ecl_region_select_deep_cells
	ecl_region_select_equal
	ecl_region_select_false
	ecl_region_select_from_ijkbox
	ecl_region_select_from_layer
	ecl_region_select_global_index
	ecl_region_select_i1i2
	ecl_region_select_in_cylinder
	ecl_region_select_in_interval
	ecl_region_select_in_zcylinder
	ecl_region_select_inactive_cells
	ecl_region_select_inside_polygon
	ecl_region_select_j1j2
	ecl_region_select_k1k2
	ecl_region_select_large_cells
	ecl_region_select_larger
	ecl_region_select_outside_polygon
	ecl_region_select_shallow_cells
	ecl_region_select_small_cells
	ecl_region_select_smaller
	ecl_region_select_thick_cells
	ecl_region_select_thin_cells
	ecl_region_select_true
	ecl_region_set_kw_double
	ecl_region_set_kw_float
	ecl_region_set_kw_int
	ecl_region_set_name
	ecl_region_shift_kw_double
	ecl_region_shift_kw_float
	ecl_region_shift_kw_int
	ecl_region_subtract
	ecl_region_sum_kw_bool
	ecl_region_sum_kw_double
	ecl_region_sum_kw_float
	ecl_region_sum_kw_int
	ecl_region_union
	ecl_region_unlock
	ecl_region_xor
	ecl_rft_cell_alloc_PLT
	ecl_rft_cell_alloc_RFT
	ecl_rft_cell_cmp
	ecl_rft_cell_cmp__
	ecl_rft_cell_free
	ecl_rft_cell_free__
	ecl_rft_cell_get_connection_end
	ecl_rft_cell_get_connection_start
	ecl_rft_cell_get_depth
	ecl_rft_cell_get_flowrate
	ecl_rft_cell_get_gas_flowrate
	ecl_rft_cell_get_grat
	ecl_rft_cell_get_i
	ecl_rft_cell_get_ijk
	ecl_rft_cell_get_j
	ecl_rft_cell_get_k
	ecl_rft_cell_get_oil_flowrate
	ecl_rft_cell_get_orat
	ecl_rft_cell_get_pressure
	ecl_rft_cell_get_sgas
	ecl_rft_cell_get_soil
	ecl_rft_cell_get_swat
	ecl_rft_cell_get_water_flowrate
	ecl_rft_cell_get_wrat
	ecl_rft_cell_ijk_equal
	ecl_rft_cell_is_instance
	ecl_rft_cell_lt
	ecl_rft_file_alloc
	ecl_rft_file_alloc_case
	ecl_rft_file_alloc_case_filename
	ecl_rft_file_alloc_well_list
	ecl_rft_file_case_has_rft
	ecl_rft_file_free
	ecl_rft_file_free__
	ecl_rft_file_get_filename
	ecl_rft_file_get_num_wells
	ecl_rft_file_get_size
	ecl_rft_file_get_size__
	ecl_rft_file_get_well_occurences
	ecl_rft_file_get_well_time_rft
	ecl_rft_file_has_well
	ecl_rft_file_iget_node
	ecl_rft_file_iget_well_rft
	ecl_rft_file_update
	ecl_rft_node_alloc
	ecl_rft_node_alloc_new
	ecl_rft_node_append_cell
	ecl_rft_node_cmp
	ecl_rft_node_free
	ecl_rft_node_free__
	ecl_rft_node_fwrite
	ecl_rft_node_get_date
	ecl_rft_node_get_days
	ecl_rft_node_get_size
	ecl_rft_node_get_type
	ecl_rft_node_get_well_name
	ecl_rft_node_iget_cell
	ecl_rft_node_iget_cell_sorted
	ecl_rft_node_iget_depth
	ecl_rft_node_iget_grat
	ecl_rft_node_iget_ijk
	ecl_rft_node_iget_orat
	ecl_rft_node_iget_pressure
	ecl_rft_node_iget_sgas
	ecl_rft_node_iget_soil
	ecl_rft_node_iget_swat
	ecl_rft_node_iget_wrat
	ecl_rft_node_is_MSW
	ecl_rft_node_is_PLT
	ecl_rft_node_is_RFT
	ecl_rft_node_is_SEGMENT
	ecl_rft_node_lookup_ijk
	ecl_rft_node_lt
	ecl_rst_file_add_kw
	ecl_rst_file_close
	ecl_rst_file_end_solution
	ecl_rst_file_ftell
	ecl_rst_file_fwrite_header
	ecl_rst_file_open_append
	ecl_rst_file_open_read
	ecl_rst_file_open_write
	ecl_rst_file_open_write_seek
	ecl_rst_file_start_solution
	ecl_rsthead_alloc
	ecl_rsthead_alloc_empty
	ecl_rsthead_alloc_from_kw
	ecl_rsthead_date
	ecl_rsthead_equal
	ecl_rsthead_fprintf
	ecl_rsthead_fprintf_struct
	ecl_rsthead_free
	ecl_rsthead_get_ncwmax
	ecl_rsthead_get_nxconz
	ecl_rsthead_get_report_step
	ecl_rsthead_get_sim_days
	ecl_rsthead_get_sim_time
	ecl_smspec_alloc_empty
	ecl_smspec_alloc_group_list
	ecl_smspec_alloc_mapping
	ecl_smspec_alloc_matching_general_var_list
	ecl_smspec_alloc_restart_writer
	ecl_smspec_alloc_well_key
	ecl_smspec_alloc_well_list
	ecl_smspec_alloc_well_var_list
	ecl_smspec_alloc_writer
	ecl_smspec_equal
	ecl_smspec_fread_alloc
	ecl_smspec_free
	ecl_smspec_fwrite
	ecl_smspec_get_block_var_params_index
	ecl_smspec_get_block_var_params_index_ijk
	ecl_smspec_get_date_day_index
	ecl_smspec_get_date_month_index
	ecl_smspec_get_date_year_index
	ecl_smspec_get_field_var_params_index
	ecl_smspec_get_first_step
	ecl_smspec_get_formatted
	ecl_smspec_get_general_var_params_index
	ecl_smspec_get_general_var_unit
	ecl_smspec_get_grid_dims
	ecl_smspec_get_group_var_params_index
	ecl_smspec_get_header_file
	ecl_smspec_get_index_map
	ecl_smspec_get_join_string
	ecl_smspec_get_misc_var_params_index
	ecl_smspec_get_params_size
	ecl_smspec_get_region_var_params_index
	ecl_smspec_get_restart_case
	ecl_smspec_get_restart_step
	ecl_smspec_get_start_time
	ecl_smspec_get_time_index
	ecl_smspec_get_time_seconds
	ecl_smspec_get_unit_system
	ecl_smspec_get_var_type_name
	ecl_smspec_get_well_completion_var_params_index
	ecl_smspec_get_well_var_params_index
	ecl_smspec_has_block_var
	ecl_smspec_has_block_var_ijk
	ecl_smspec_has_field_var
	ecl_smspec_has_general_var
	ecl_smspec_has_group_var
	ecl_smspec_has_misc_var
	ecl_smspec_has_region_var
	ecl_smspec_has_well_completion_var
	ecl_smspec_has_well_var
	ecl_smspec_identify_var_type
	ecl_smspec_needs_num
	ecl_smspec_needs_wgname
	ecl_smspec_num_nodes
	ecl_smspec_select_matching_general_var_list
	ecl_subsidence_add_survey_PRESSURE
	ecl_subsidence_alloc
	ecl_subsidence_eval
	ecl_subsidence_eval_geertsma
	ecl_subsidence_eval_geertsma_rporv
	ecl_subsidence_free
	ecl_subsidence_has_survey
	ecl_sum_add_smspec_node
	ecl_sum_add_tstep
	ecl_sum_add_var
	ecl_sum_alloc_data_vector
	ecl_sum_alloc_days_solution
	ecl_sum_alloc_group_list
	ecl_sum_alloc_matching_general_var_list
	ecl_sum_alloc_resample
	ecl_sum_alloc_restart_writer
	ecl_sum_alloc_restart_writer2
	ecl_sum_alloc_seconds_solution
	ecl_sum_alloc_time_solution
	ecl_sum_alloc_time_vector
	ecl_sum_alloc_well_key
	ecl_sum_alloc_well_list
	ecl_sum_alloc_well_var_list
	ecl_sum_alloc_writer
	ecl_sum_can_write
	ecl_sum_case_exists
	ecl_sum_check_sim_days
	ecl_sum_check_sim_time
	ecl_sum_data_add_case
	ecl_sum_data_add_new_tstep
	ecl_sum_data_alloc
	ecl_sum_data_alloc_data_vector
	ecl_sum_data_alloc_seconds_solution
	ecl_sum_data_alloc_time_vector
	ecl_sum_data_alloc_writer
	ecl_sum_data_can_write
	ecl_sum_data_check_sim_days
	ecl_sum_data_check_sim_time
	ecl_sum_data_fread
	ecl_sum_data_free
	ecl_sum_data_fwrite
	ecl_sum_data_fwrite_interp_csv_line
	ecl_sum_data_get_data_start
	ecl_sum_data_get_first_day
	ecl_sum_data_get_first_report_step
	ecl_sum_data_get_from_sim_days
	ecl_sum_data_get_from_sim_time
	ecl_sum_data_get_interp_vector
	ecl_sum_data_get_last_report_step
	ecl_sum_data_get_last_value
	ecl_sum_data_get_length
	ecl_sum_data_get_report_step_from_days
	ecl_sum_data_get_report_step_from_time
	ecl_sum_data_get_report_time
	ecl_sum_data_get_sim_end
	ecl_sum_data_get_sim_length
	ecl_sum_data_has_report_step
	ecl_sum_data_iget
	ecl_sum_data_iget_first_value
	ecl_sum_data_iget_last_value
	ecl_sum_data_iget_report_end
	ecl_sum_data_iget_report_step
	ecl_sum_data_iget_sim_days
	ecl_sum_data_iget_sim_time
	ecl_sum_data_init_datetime64_vector
	ecl_sum_data_init_double_frame
	ecl_sum_data_init_double_frame_interp
	ecl_sum_data_init_double_vector
	ecl_sum_data_init_double_vector_interp
	ecl_sum_data_report_step_compatible
	ecl_sum_data_report_step_equal
	ecl_sum_data_reset_self_map
	ecl_sum_data_summarize
	ecl_sum_data_time2days
	ecl_sum_days_from_time
	ecl_sum_export_csv
	ecl_sum_fmt_init_summary_x
	ecl_sum_fprintf
	ecl_sum_fread_alloc
	ecl_sum_fread_alloc_case
	ecl_sum_fread_alloc_case2__
	ecl_sum_fread_alloc_case__
	ecl_sum_free
	ecl_sum_free__
	ecl_sum_free_data
	ecl_sum_fwrite
	ecl_sum_fwrite_interp_csv_line
	ecl_sum_fwrite_smspec
	ecl_sum_get_abs_path
	ecl_sum_get_base
	ecl_sum_get_block_var
	ecl_sum_get_block_var_ijk
	ecl_sum_get_block_var_index_ijk
	ecl_sum_get_case
	ecl_sum_get_data_length
	ecl_sum_get_data_start
	ecl_sum_get_end_time
	ecl_sum_get_field_var
	ecl_sum_get_field_var_from_sim_days
	ecl_sum_get_field_var_from_sim_time
	ecl_sum_get_first_day
	ecl_sum_get_first_gt
	ecl_sum_get_first_lt
	ecl_sum_get_first_report_step
	ecl_sum_get_first_value_gen_key
	ecl_sum_get_first_value_node
	ecl_sum_get_from_sim_days
	ecl_sum_get_from_sim_time
	ecl_sum_get_general_var
	ecl_sum_get_general_var_from_sim_days
	ecl_sum_get_general_var_from_sim_time
	ecl_sum_get_general_var_node
	ecl_sum_get_general_var_params_index
	ecl_sum_get_general_var_unit
	ecl_sum_get_group_var
	ecl_sum_get_interp_vector
	ecl_sum_get_keyword
	ecl_sum_get_last_report_step
	ecl_sum_get_last_value_gen_key
	ecl_sum_get_last_value_node
	ecl_sum_get_misc_var
	ecl_sum_get_misc_var_index
	ecl_sum_get_num
	ecl_sum_get_path
	ecl_sum_get_region_var
	ecl_sum_get_report_step_from_days
	ecl_sum_get_report_step_from_time
	ecl_sum_get_report_time
	ecl_sum_get_restart_case
	ecl_sum_get_restart_step
	ecl_sum_get_sim_length
	ecl_sum_get_smspec
	ecl_sum_get_start_time
	ecl_sum_get_unit
	ecl_sum_get_unit_system
	ecl_sum_get_var_type
	ecl_sum_get_well_completion_var
	ecl_sum_get_well_completion_var_index
	ecl_sum_get_well_var
	ecl_sum_get_well_var_from_sim_days
	ecl_sum_get_well_var_from_sim_time
	ecl_sum_get_wgname
	ecl_sum_has_block_var
	ecl_sum_has_block_var_ijk
	ecl_sum_has_field_var
	ecl_sum_has_general_var
	ecl_sum_has_group_var
	ecl_sum_has_key
	ecl_sum_has_misc_var
	ecl_sum_has_region_var
	ecl_sum_has_report_step
	ecl_sum_has_well_completion_var
	ecl_sum_has_well_var
	ecl_sum_identify_var_type
	ecl_sum_iget
	ecl_sum_iget_first_value
	ecl_sum_iget_last_value
	ecl_sum_iget_report_end
	ecl_sum_iget_report_step
	ecl_sum_iget_sim_days
	ecl_sum_iget_sim_time
	ecl_sum_init_datetime64_vector
	ecl_sum_init_double_frame
	ecl_sum_init_double_frame_interp
	ecl_sum_init_double_vector
	ecl_sum_init_double_vector_interp
	ecl_sum_is_instance
	ecl_sum_is_oil_producer
	ecl_sum_report_step_compatible
	ecl_sum_report_step_equal
	ecl_sum_resample_from_sim_days
	ecl_sum_resample_from_sim_time
	ecl_sum_same_case
	ecl_sum_select_matching_general_var_list
	ecl_sum_set_case
	ecl_sum_set_fmt_case
	ecl_sum_set_unified
	ecl_sum_summarize
	ecl_sum_time2days
	ecl_sum_time_from_days
	ecl_sum_tstep_alloc_copy
	ecl_sum_tstep_alloc_from_file
	ecl_sum_tstep_alloc_new
	ecl_sum_tstep_alloc_remap_copy
	ecl_sum_tstep_free
	ecl_sum_tstep_free__
	ecl_sum_tstep_fwrite
	ecl_sum_tstep_get_from_key
	ecl_sum_tstep_get_from_node
	ecl_sum_tstep_get_ministep
	ecl_sum_tstep_get_report
	ecl_sum_tstep_get_sim_days
	ecl_sum_tstep_get_sim_seconds
	ecl_sum_tstep_get_sim_time
	ecl_sum_tstep_has_key
	ecl_sum_tstep_iget
	ecl_sum_tstep_iscale
	ecl_sum_tstep_iset
	ecl_sum_tstep_ishift
	ecl_sum_tstep_safe_cast
	ecl_sum_tstep_safe_cast_const
	ecl_sum_tstep_set_from_key
	ecl_sum_tstep_set_from_node
	ecl_sum_tstep_sim_time_equal
	ecl_sum_var_is_rate
	ecl_sum_var_is_total
	ecl_sum_vector_add_key
	ecl_sum_vector_add_keys
	ecl_sum_vector_alloc
	ecl_sum_vector_alloc_layout_copy
	ecl_sum_vector_free
	ecl_sum_vector_get_size
	ecl_sum_vector_iget_is_rate
	ecl_sum_vector_iget_key
	ecl_sum_vector_iget_param_index
	ecl_sum_vector_iget_valid
	ecl_sum_vector_is_instance
	ecl_type_alloc_copy_python
	ecl_type_alloc_from_name_python
	ecl_type_alloc_from_type_python
	ecl_type_alloc_name
	ecl_type_alloc_name_python
	ecl_type_alloc_python
	ecl_type_create
	ecl_type_create_from_name
	ecl_type_create_from_type
	ecl_type_free_python
	ecl_type_get_name
	ecl_type_get_sizeof_ctype
	ecl_type_get_sizeof_ctype_python
	ecl_type_get_sizeof_iotype
	ecl_type_get_sizeof_iotype_python
	ecl_type_get_type
	ecl_type_get_type_python
	ecl_type_is_alpha
	ecl_type_is_bool
	ecl_type_is_bool_python
	ecl_type_is_char
	ecl_type_is_char_python
	ecl_type_is_double
	ecl_type_is_double_python
	ecl_type_is_equal
	ecl_type_is_equal_python
	ecl_type_is_float
	ecl_type_is_float_python
	ecl_type_is_int
	ecl_type_is_int_python
	ecl_type_is_mess
	ecl_type_is_mess_python
	ecl_type_is_numeric
	ecl_type_is_numeric_python
	ecl_type_is_string
	ecl_type_is_string_python
	ecl_util_alloc_base_guess
	ecl_util_alloc_exfilename
	ecl_util_alloc_exfilename_anyfmt
	ecl_util_alloc_filename
	ecl_util_alloc_restart_files
	ecl_util_alloc_summary_data_files
	ecl_util_alloc_summary_files
	ecl_util_append_month_range
	ecl_util_escape_kw
	ecl_util_file_type_name
	ecl_util_filename_report_nr
	ecl_util_fmt_file
	ecl_util_fname_report_cmp
	ecl_util_get_file_type
	ecl_util_get_month_nr
	ecl_util_get_num_cpu
	ecl_util_get_phase_name
	ecl_util_get_start_date
	ecl_util_get_unit_set
	ecl_util_init_month_range
	ecl_util_inspect_extension
	ecl_util_make_date
	ecl_util_make_date__
	ecl_util_make_datetime
	ecl_util_memcpy_typed_data
	ecl_util_path_access
	ecl_util_select_filelist
	ecl_util_set_date_values
	ecl_util_set_datetime_values
	ecl_util_unified_file
	ecl_util_valid_basename_fmt
	ecl_version_get_build_time
	ecl_version_get_git_commit
	ecl_version_get_git_commit_short
	ecl_version_get_major_version
	ecl_version_get_micro_version
	ecl_version_get_minor_version
	export_corners
	fault_block_add_cell
	fault_block_assign_to_region
	fault_block_copy_content
	fault_block_export_cell
	fault_block_free__
	fault_block_get_global_index_list
	fault_block_get_id
	fault_block_get_region_list
	fault_block_get_size
	fault_block_get_xc
	fault_block_get_yc
	fault_block_iget_i
	fault_block_iget_j
	fault_block_is_instance
	fault_block_layer_add_block
	fault_block_layer_alloc
	fault_block_layer_del_block
	fault_block_layer_export
	fault_block_layer_free
	fault_block_layer_free__
	fault_block_layer_get_block
	fault_block_layer_get_grid
	fault_block_layer_get_k
	fault_block_layer_get_layer
	fault_block_layer_get_max_id
	fault_block_layer_get_next_id
	fault_block_layer_get_size
	fault_block_layer_has_block
	fault_block_layer_iget_block
	fault_block_layer_insert_block_content
	fault_block_layer_is_instance
	fault_block_layer_load_kw
	fault_block_layer_safe_get_block
	fault_block_layer_scan_kw
	fault_block_layer_scan_layer
	fault_block_list_neighbours
	fault_block_trace_edge
	float_vector_alloc
	float_vector_alloc_copy
	float_vector_alloc_data_copy
	float_vector_alloc_private_wrapper
	float_vector_alloc_rsort_perm
	float_vector_alloc_shared_wrapper
	float_vector_alloc_sort_perm
	float_vector_alloc_strided_copy
	float_vector_append
	float_vector_append_default
	float_vector_append_many
	float_vector_append_vector
	float_vector_apply
	float_vector_contains
	float_vector_contains_sorted
	float_vector_count_equal
	float_vector_del_value
	float_vector_div
	float_vector_element_size
	float_vector_equal
	float_vector_first_equal
	float_vector_first_not_equal
	float_vector_fprintf
	float_vector_fread
	float_vector_fread_alloc
	float_vector_fread_data
	float_vector_free
	float_vector_free__
	float_vector_free_container
	float_vector_free_data
	float_vector_fwrite
	float_vector_fwrite_data
	float_vector_get_const_ptr
	float_vector_get_default
	float_vector_get_first
	float_vector_get_last
	float_vector_get_max
	float_vector_get_max_index
	float_vector_get_min
	float_vector_get_min_index
	float_vector_get_ptr
	float_vector_get_read_only
	float_vector_growable
	float_vector_iadd
	float_vector_idel
	float_vector_idel_block
	float_vector_iget
	float_vector_imul
	float_vector_index
	float_vector_index_sorted
	float_vector_init_linear
	float_vector_init_range
	float_vector_inplace_add
	float_vector_inplace_div
	float_vector_inplace_mul
	float_vector_inplace_sub
	float_vector_insert
	float_vector_is_instance
	float_vector_is_sorted
	float_vector_iset
	float_vector_iset_block
	float_vector_iset_default
	float_vector_lookup_bin
	float_vector_lookup_bin__
	float_vector_lshift
	float_vector_memcpy
	float_vector_memcpy_data
	float_vector_memcpy_data_block
	float_vector_memcpy_from_data
	float_vector_permute
	float_vector_pop
	float_vector_range_fill
	float_vector_reset
	float_vector_reset__
	float_vector_resize
	float_vector_reverse_iget
	float_vector_rshift
	float_vector_rsort
	float_vector_safe_cast
	float_vector_safe_iget
	float_vector_scale
	float_vector_select_unique
	float_vector_set_all
	float_vector_set_default
	float_vector_set_many
	float_vector_set_read_only
	float_vector_shift
	float_vector_shrink
	float_vector_size
	float_vector_sort
	float_vector_sum
	fortio_alloc_FILE_wrapper
	fortio_assert_stream_open
	fortio_check_buffer
	fortio_check_file
	fortio_complete_read
	fortio_complete_write
	fortio_copy_record
	fortio_data_fseek
	fortio_data_fskip
	fortio_fclean
	fortio_fclose
	fortio_fclose_stream
	fortio_fflush
	fortio_filename_ref
	fortio_fileno
	fortio_fmt_file
	fortio_fopen_stream
	fortio_fread_alloc_record
	fortio_fread_buffer
	fortio_free_FILE_wrapper
	fortio_fseek
	fortio_fskip_buffer
	fortio_fskip_record
	fortio_ftell
	fortio_ftruncate
	fortio_ftruncate_current
	fortio_fwrite_error
	fortio_fwrite_record
	fortio_get_FILE
	fortio_init_read
	fortio_init_write
	fortio_is_fortio_file
	fortio_is_instance
	fortio_looks_like_fortran_file
	fortio_open_append
	fortio_open_reader
	fortio_open_readwrite
	fortio_open_writer
	fortio_read_at_eof
	fortio_rewind
	fortio_safe_cast
	fortio_stream_is_open
	fprintf
	fscanf
	geo_pointset_add_xyz
	geo_pointset_alloc
	geo_pointset_assign_z
	geo_pointset_equal
	geo_pointset_free
	geo_pointset_get_size
	geo_pointset_get_zcoord
	geo_pointset_iadd
	geo_pointset_iget_xy
	geo_pointset_iget_z
	geo_pointset_imul
	geo_pointset_iset_z
	geo_pointset_isqrt
	geo_pointset_isub
	geo_pointset_memcpy
	geo_pointset_scale_z
	geo_pointset_shift_z
	geo_polygon_add_point
	geo_polygon_add_point_front
	geo_polygon_alloc
	geo_polygon_close
	geo_polygon_collection_add_polygon
	geo_polygon_collection_alloc
	geo_polygon_collection_create_polygon
	geo_polygon_collection_free
	geo_polygon_collection_get_polygon
	geo_polygon_collection_has_polygon
	geo_polygon_collection_iget_polygon
	geo_polygon_collection_is_instance
	geo_polygon_collection_size
	geo_polygon_contains_point
	geo_polygon_contains_point__
	geo_polygon_equal
	geo_polygon_fload_alloc_irap
	geo_polygon_fprintf
	geo_polygon_free
	geo_polygon_free__
	geo_polygon_get_length
	geo_polygon_get_name
	geo_polygon_get_size
	geo_polygon_iget_xy
	geo_polygon_is_instance
	geo_polygon_reset
	geo_polygon_segment_intersects
	geo_polygon_set_name
	geo_polygon_shift
	geo_region_alloc
	geo_region_deselect_above_line
	geo_region_deselect_below_line
	geo_region_deselect_inside_polygon
	geo_region_deselect_outside_polygon
	geo_region_free
	geo_region_free__
	geo_region_get_index_list
	geo_region_reset
	geo_region_select_above_line
	geo_region_select_below_line
	geo_region_select_inside_polygon
	geo_region_select_outside_polygon
	geo_surface_alloc_copy
	geo_surface_alloc_new
	geo_surface_assign_value
	geo_surface_equal
	geo_surface_equal_header
	geo_surface_fload_alloc_irap
	geo_surface_fload_irap_zcoord
	geo_surface_fprintf_irap
	geo_surface_fprintf_irap_external_zcoord
	geo_surface_free
	geo_surface_free__
	geo_surface_get_nx
	geo_surface_get_ny
	geo_surface_get_pointset
	geo_surface_get_size
	geo_surface_iadd
	geo_surface_iget_xy
	geo_surface_iget_zvalue
	geo_surface_imul
	geo_surface_iset_zvalue
	geo_surface_isqrt
	geo_surface_isub
	geo_surface_scale
	geo_surface_shift
	geo_util_inside_polygon
	geo_util_inside_polygon__
	geo_util_xlines
	geo_util_xsegments
	grid_dims_alloc
	grid_dims_free
	grid_dims_free__
	grid_dims_init
	hash_add_option
	hash_alloc
	hash_alloc_from_options
	hash_alloc_key_sorted_list
	hash_alloc_keylist
	hash_alloc_sorted_keylist
	hash_alloc_stringlist
	hash_apply
	hash_clear
	hash_del
	hash_free
	hash_free__
	hash_get
	hash_get_counter
	hash_get_double
	hash_get_int
	hash_get_size
	hash_get_string
	hash_has_key
	hash_inc_counter
	hash_insert_copy
	hash_insert_double
	hash_insert_hash_owned_ref
	hash_insert_int
	hash_insert_ref
	hash_insert_string
	hash_is_instance
	hash_iter_alloc
	hash_iter_free
	hash_iter_get_next_key
	hash_iter_get_next_value
	hash_iter_is_complete
	hash_iter_restart
	hash_key_list_compare
	hash_node_alloc_new
	hash_node_free
	hash_node_get_data
	hash_node_get_global_index
	hash_node_get_key
	hash_node_get_next
	hash_node_get_table_index
	hash_node_key_eq
	hash_node_set_next
	hash_node_set_table_index
	hash_pop
	hash_resize
	hash_safe_cast
	hash_safe_cast_const
	hash_safe_del
	hash_safe_get
	hash_sll_add_node
	hash_sll_alloc_table
	hash_sll_del_node
	hash_sll_empty
	hash_sll_free
	hash_sll_get
	hash_sll_get_head
	hash_sll_has_key
	int_vector_alloc
	int_vector_alloc_copy
	int_vector_alloc_data_copy
	int_vector_alloc_mask
	int_vector_alloc_private_wrapper
	int_vector_alloc_rsort_perm
	int_vector_alloc_shared_wrapper
	int_vector_alloc_sort_perm
	int_vector_alloc_strided_copy
	int_vector_append
	int_vector_append_default
	int_vector_append_many
	int_vector_append_vector
	int_vector_apply
	int_vector_contains
	int_vector_contains_sorted
	int_vector_count_equal
	int_vector_del_value
	int_vector_div
	int_vector_element_size
	int_vector_equal
	int_vector_first_equal
	int_vector_first_not_equal
	int_vector_fprintf
	int_vector_fread
	int_vector_fread_alloc
	int_vector_fread_data
	int_vector_free
	int_vector_free__
	int_vector_free_container
	int_vector_free_data
	int_vector_fwrite
	int_vector_fwrite_data
	int_vector_get_const_ptr
	int_vector_get_default
	int_vector_get_first
	int_vector_get_last
	int_vector_get_max
	int_vector_get_max_index
	int_vector_get_min
	int_vector_get_min_index
	int_vector_get_ptr
	int_vector_get_read_only
	int_vector_growable
	int_vector_iadd
	int_vector_idel
	int_vector_idel_block
	int_vector_iget
	int_vector_imul
	int_vector_index
	int_vector_index_sorted
	int_vector_init_linear
	int_vector_init_range
	int_vector_inplace_add
	int_vector_inplace_div
	int_vector_inplace_mul
	int_vector_inplace_sub
	int_vector_insert
	int_vector_is_instance
	int_vector_is_sorted
	int_vector_iset
	int_vector_iset_block
	int_vector_iset_default
	int_vector_lookup_bin
	int_vector_lookup_bin__
	int_vector_lshift
	int_vector_memcpy
	int_vector_memcpy_data
	int_vector_memcpy_data_block
	int_vector_memcpy_from_data
	int_vector_permute
	int_vector_pop
	int_vector_range_fill
	int_vector_reset
	int_vector_reset__
	int_vector_resize
	int_vector_reverse_iget
	int_vector_rshift
	int_vector_rsort
	int_vector_safe_cast
	int_vector_safe_iget
	int_vector_scale
	int_vector_select_unique
	int_vector_set_all
	int_vector_set_default
	int_vector_set_many
	int_vector_set_read_only
	int_vector_shift
	int_vector_shrink
	int_vector_size
	int_vector_sort
	int_vector_sum
	inv_map_alloc
	inv_map_free
	inv_map_get_file_kw
	layer_add_barrier
	layer_add_ijbarrier
	layer_add_interp_barrier
	layer_alloc
	layer_assign
	layer_cell_contact
	layer_cell_on_edge
	layer_cells_equal
	layer_clear_cells
	layer_count_equal
	layer_fprintf
	layer_fprintf_box
	layer_fprintf_cell
	layer_free
	layer_get_cell_sum
	layer_get_nx
	layer_get_ny
	layer_iget_active
	layer_iget_bottom_barrier
	layer_iget_cell_value
	layer_iget_edge_value
	layer_iget_left_barrier
	layer_is_instance
	layer_iset_cell_value
	layer_memcpy
	layer_replace_cell_values
	layer_safe_cast
	layer_trace_block_content
	layer_update_active
	layer_update_connected_cells
	long_vector_alloc
	long_vector_alloc_copy
	long_vector_alloc_data_copy
	long_vector_alloc_private_wrapper
	long_vector_alloc_rsort_perm
	long_vector_alloc_shared_wrapper
	long_vector_alloc_sort_perm
	long_vector_alloc_strided_copy
	long_vector_append
	long_vector_append_default
	long_vector_append_many
	long_vector_append_vector
	long_vector_apply
	long_vector_contains
	long_vector_contains_sorted
	long_vector_count_equal
	long_vector_del_value
	long_vector_div
	long_vector_element_size
	long_vector_equal
	long_vector_first_equal
	long_vector_first_not_equal
	long_vector_fprintf
	long_vector_fread
	long_vector_fread_alloc
	long_vector_fread_data
	long_vector_free
	long_vector_free__
	long_vector_free_container
	long_vector_free_data
	long_vector_fwrite
	long_vector_fwrite_data
	long_vector_get_const_ptr
	long_vector_get_default
	long_vector_get_first
	long_vector_get_last
	long_vector_get_max
	long_vector_get_max_index
	long_vector_get_min
	long_vector_get_min_index
	long_vector_get_ptr
	long_vector_get_read_only
	long_vector_growable
	long_vector_iadd
	long_vector_idel
	long_vector_idel_block
	long_vector_iget
	long_vector_imul
	long_vector_index
	long_vector_index_sorted
	long_vector_init_linear
	long_vector_init_range
	long_vector_inplace_add
	long_vector_inplace_div
	long_vector_inplace_mul
	long_vector_inplace_sub
	long_vector_insert
	long_vector_is_instance
	long_vector_is_sorted
	long_vector_iset
	long_vector_iset_block
	long_vector_iset_default
	long_vector_lookup_bin
	long_vector_lookup_bin__
	long_vector_lshift
	long_vector_memcpy
	long_vector_memcpy_data
	long_vector_memcpy_data_block
	long_vector_memcpy_from_data
	long_vector_permute
	long_vector_pop
	long_vector_range_fill
	long_vector_reset
	long_vector_reset__
	long_vector_resize
	long_vector_reverse_iget
	long_vector_rshift
	long_vector_rsort
	long_vector_safe_cast
	long_vector_safe_iget
	long_vector_scale
	long_vector_select_unique
	long_vector_set_all
	long_vector_set_default
	long_vector_set_many
	long_vector_set_read_only
	long_vector_shift
	long_vector_shrink
	long_vector_size
	long_vector_sort
	long_vector_sum
	lookup_table_alloc
	lookup_table_alloc_empty
	lookup_table_append
	lookup_table_free
	lookup_table_get_max_arg
	lookup_table_get_max_value
	lookup_table_get_min_arg
	lookup_table_get_min_value
	lookup_table_get_size
	lookup_table_has_high_limit
	lookup_table_has_low_limit
	lookup_table_interp
	lookup_table_set_data
	lookup_table_set_high_limit
	lookup_table_set_low_limit
	mzran_alloc
	mzran_forward
	mzran_fprintf_state
	mzran_free
	mzran_fscanf_state
	mzran_get_state
	mzran_set_state
	nnc_info_add_nnc
	nnc_info_alloc
	nnc_info_alloc_copy
	nnc_info_equal
	nnc_info_fprintf
	nnc_info_free
	nnc_info_get_lgr_nr
	nnc_info_get_self_vector
	nnc_info_get_size
	nnc_info_get_total_size
	nnc_info_get_vector
	nnc_info_has_grid_index_list
	nnc_info_iget_vector
	nnc_info_is_instance
	nnc_vector_add_nnc
	nnc_vector_alloc
	nnc_vector_alloc_copy
	nnc_vector_equal
	nnc_vector_free
	nnc_vector_free__
	nnc_vector_get_lgr_nr
	nnc_vector_get_size
	nnc_vector_iget_grid_index
	nnc_vector_iget_nnc_index
	nnc_vector_is_instance
	node_ctype_name
	node_data_alloc_buffer
	node_data_alloc_copy
	node_data_alloc_deep_copy
	node_data_alloc_double
	node_data_alloc_int
	node_data_alloc_ptr
	node_data_alloc_shallow_copy
	node_data_alloc_string
	node_data_fetch_and_inc_int
	node_data_free
	node_data_free_container
	node_data_get_const_ptr
	node_data_get_double
	node_data_get_int
	node_data_get_ptr
	node_data_get_string
	perm_vector_alloc
	perm_vector_free
	perm_vector_get_size
	perm_vector_iget
	printf
	rng_alloc
	rng_alloc__
	rng_forward
	rng_fprintf_state
	rng_free
	rng_free__
	rng_fscanf_state
	rng_get_double
	rng_get_int
	rng_get_max_int
	rng_get_state
	rng_get_type
	rng_init
	rng_is_instance
	rng_load_state
	rng_rng_init
	rng_safe_cast
	rng_save_state
	rng_set_state
	rng_shuffle
	rng_shuffle_int
	rng_state_size
	rng_std_normal
	size_t_vector_alloc
	size_t_vector_alloc_copy
	size_t_vector_alloc_data_copy
	size_t_vector_alloc_private_wrapper
	size_t_vector_alloc_rsort_perm
	size_t_vector_alloc_shared_wrapper
	size_t_vector_alloc_sort_perm
	size_t_vector_alloc_strided_copy
	size_t_vector_append
	size_t_vector_append_default
	size_t_vector_append_many
	size_t_vector_append_vector
	size_t_vector_apply
	size_t_vector_contains
	size_t_vector_contains_sorted
	size_t_vector_count_equal
	size_t_vector_del_value
	size_t_vector_div
	size_t_vector_element_size
	size_t_vector_equal
	size_t_vector_first_equal
	size_t_vector_first_not_equal
	size_t_vector_fprintf
	size_t_vector_fread
	size_t_vector_fread_alloc
	size_t_vector_fread_data
	size_t_vector_free
	size_t_vector_free__
	size_t_vector_free_container
	size_t_vector_free_data
	size_t_vector_fwrite
	size_t_vector_fwrite_data
	size_t_vector_get_const_ptr
	size_t_vector_get_default
	size_t_vector_get_first
	size_t_vector_get_last
	size_t_vector_get_max
	size_t_vector_get_max_index
	size_t_vector_get_min
	size_t_vector_get_min_index
	size_t_vector_get_ptr
	size_t_vector_get_read_only
	size_t_vector_growable
	size_t_vector_iadd
	size_t_vector_idel
	size_t_vector_idel_block
	size_t_vector_iget
	size_t_vector_imul
	size_t_vector_index
	size_t_vector_index_sorted
	size_t_vector_init_linear
	size_t_vector_init_range
	size_t_vector_inplace_add
	size_t_vector_inplace_div
	size_t_vector_inplace_mul
	size_t_vector_inplace_sub
	size_t_vector_insert
	size_t_vector_is_instance
	size_t_vector_is_sorted
	size_t_vector_iset
	size_t_vector_iset_block
	size_t_vector_iset_default
	size_t_vector_lookup_bin
	size_t_vector_lookup_bin__
	size_t_vector_lshift
	size_t_vector_memcpy
	size_t_vector_memcpy_data
	size_t_vector_memcpy_data_block
	size_t_vector_memcpy_from_data
	size_t_vector_permute
	size_t_vector_pop
	size_t_vector_range_fill
	size_t_vector_reset
	size_t_vector_reset__
	size_t_vector_resize
	size_t_vector_reverse_iget
	size_t_vector_rshift
	size_t_vector_rsort
	size_t_vector_safe_cast
	size_t_vector_safe_iget
	size_t_vector_scale
	size_t_vector_select_unique
	size_t_vector_set_all
	size_t_vector_set_default
	size_t_vector_set_many
	size_t_vector_set_read_only
	size_t_vector_shift
	size_t_vector_shrink
	size_t_vector_size
	size_t_vector_sort
	size_t_vector_sum
	smspec_alloc_block_ijk_key
	smspec_alloc_well_key
	smspec_node_alloc
	smspec_node_alloc_lgr
	smspec_node_cmp
	smspec_node_cmp__
	smspec_node_equal
	smspec_node_fprintf
	smspec_node_free
	smspec_node_free__
	smspec_node_get_R1
	smspec_node_get_R2
	smspec_node_get_default
	smspec_node_get_gen_key1
	smspec_node_get_gen_key2
	smspec_node_get_ijk
	smspec_node_get_keyword
	smspec_node_get_lgr_ijk
	smspec_node_get_lgr_name
	smspec_node_get_num
	smspec_node_get_params_index
	smspec_node_get_unit
	smspec_node_get_var_type
	smspec_node_get_wgname
	smspec_node_gt
	smspec_node_identify_rate
	smspec_node_identify_total
	smspec_node_is_historical
	smspec_node_is_rate
	smspec_node_is_total
	smspec_node_lt
	smspec_node_need_nums
	sprintf
	sscanf
	statistics_empirical_quantile
	statistics_empirical_quantile__
	statistics_mean
	statistics_std
	string_util_alloc_active_list
	string_util_alloc_active_mask
	string_util_alloc_value_list
	string_util_init_active_list
	string_util_init_active_mask
	string_util_init_value_list
	string_util_update_active_list
	string_util_update_active_mask
	string_util_update_value_list
	stringlist_alloc_argv_copy
	stringlist_alloc_char_copy
	stringlist_alloc_char_ref
	stringlist_alloc_deep_copy
	stringlist_alloc_deep_copy_with_limits
	stringlist_alloc_deep_copy_with_offset
	stringlist_alloc_from_split
	stringlist_alloc_joined_string
	stringlist_alloc_joined_substring
	stringlist_alloc_new
	stringlist_append_copy
	stringlist_append_matching_elements
	stringlist_append_stringlist_copy
	stringlist_back
	stringlist_clear
	stringlist_contains
	stringlist_deep_copy
	stringlist_equal
	stringlist_find
	stringlist_find_first
	stringlist_fprintf
	stringlist_fprintf_fmt
	stringlist_fread
	stringlist_fread_alloc
	stringlist_free
	stringlist_free__
	stringlist_front
	stringlist_fwrite
	stringlist_get_last
	stringlist_get_size
	stringlist_idel
	stringlist_iequal
	stringlist_iget
	stringlist_iget_as_bool
	stringlist_iget_as_double
	stringlist_iget_as_int
	stringlist_iget_copy
	stringlist_insert_copy
	stringlist_insert_owned_ref
	stringlist_insert_ref
	stringlist_insert_stringlist_copy
	stringlist_is_instance
	stringlist_iset_copy
	stringlist_iset_owned_ref
	stringlist_iset_ref
	stringlist_pop
	stringlist_python_sort
	stringlist_reverse
	stringlist_safe_iget
	stringlist_select_files
	stringlist_select_matching_elements
	stringlist_select_matching_files
	stringlist_sort
	stringlist_unique
	test_assert_NULL__
	test_assert_bool_equal__
	test_assert_bool_not_equal__
	test_assert_double_equal__
	test_assert_double_not_equal__
	test_assert_false__
	test_assert_file_content__
	test_assert_float_equal__
	test_assert_int_equal__
	test_assert_int_not_equal__
	test_assert_long_equal__
	test_assert_long_not_equal__
	test_assert_mem_equal__
	test_assert_mem_not_equal__
	test_assert_not_NULL__
	test_assert_ptr_equal__
	test_assert_ptr_not_equal__
	test_assert_size_t_equal__
	test_assert_size_t_not_equal__
	test_assert_string_equal__
	test_assert_string_not_equal__
	test_assert_time_t_equal__
	test_assert_time_t_not_equal__
	test_assert_true__
	test_assert_uint_equal__
	test_assert_uint_not_equal__
	test_assert_util_abort
	test_check_double_equal
	test_check_float_equal
	test_check_string_equal
	test_error_exit
	test_exit__
	test_install_SIGNALS
	time_t_vector_alloc
	time_t_vector_alloc_copy
	time_t_vector_alloc_data_copy
	time_t_vector_alloc_private_wrapper
	time_t_vector_alloc_rsort_perm
	time_t_vector_alloc_shared_wrapper
	time_t_vector_alloc_sort_perm
	time_t_vector_alloc_strided_copy
	time_t_vector_append
	time_t_vector_append_default
	time_t_vector_append_many
	time_t_vector_append_vector
	time_t_vector_apply
	time_t_vector_contains
	time_t_vector_contains_sorted
	time_t_vector_count_equal
	time_t_vector_del_value
	time_t_vector_div
	time_t_vector_element_size
	time_t_vector_equal
	time_t_vector_first_equal
	time_t_vector_first_not_equal
	time_t_vector_fprintf
	time_t_vector_fread
	time_t_vector_fread_alloc
	time_t_vector_fread_data
	time_t_vector_free
	time_t_vector_free__
	time_t_vector_free_container
	time_t_vector_free_data
	time_t_vector_fwrite
	time_t_vector_fwrite_data
	time_t_vector_get_const_ptr
	time_t_vector_get_default
	time_t_vector_get_first
	time_t_vector_get_last
	time_t_vector_get_max
	time_t_vector_get_max_index
	time_t_vector_get_min
	time_t_vector_get_min_index
	time_t_vector_get_ptr
	time_t_vector_get_read_only
	time_t_vector_growable
	time_t_vector_iadd
	time_t_vector_idel
	time_t_vector_idel_block
	time_t_vector_iget
	time_t_vector_imul
	time_t_vector_index
	time_t_vector_index_sorted
	time_t_vector_init_linear
	time_t_vector_init_range
	time_t_vector_inplace_add
	time_t_vector_inplace_div
	time_t_vector_inplace_mul
	time_t_vector_inplace_sub
	time_t_vector_insert
	time_t_vector_is_instance
	time_t_vector_is_sorted
	time_t_vector_iset
	time_t_vector_iset_block
	time_t_vector_iset_default
	time_t_vector_lookup_bin
	time_t_vector_lookup_bin__
	time_t_vector_lshift
	time_t_vector_memcpy
	time_t_vector_memcpy_data
	time_t_vector_memcpy_data_block
	time_t_vector_memcpy_from_data
	time_t_vector_permute
	time_t_vector_pop
	time_t_vector_range_fill
	time_t_vector_reset
	time_t_vector_reset__
	time_t_vector_resize
	time_t_vector_reverse_iget
	time_t_vector_rshift
	time_t_vector_rsort
	time_t_vector_safe_cast
	time_t_vector_safe_iget
	time_t_vector_scale
	time_t_vector_select_unique
	time_t_vector_set_all
	time_t_vector_set_default
	time_t_vector_set_many
	time_t_vector_set_read_only
	time_t_vector_shift
	time_t_vector_shrink
	time_t_vector_size
	time_t_vector_sort
	time_t_vector_sum
	util_abort__
	util_abort_signal
	util_abort_test_jump_buffer
	util_abort_test_set_intercept_function
	util_access
	util_after
	util_alloc_abs_path
	util_alloc_copy
	util_alloc_cwd
	util_alloc_date_stamp_utc
	util_alloc_date_string_utc
	util_alloc_dequoted_copy
	util_alloc_file_components
	util_alloc_filename
	util_alloc_joined_string
	util_alloc_multiline_string
	util_alloc_normal_path
	util_alloc_parent_path
	util_alloc_realpath
	util_alloc_realpath__
	util_alloc_rel_path
	util_alloc_sprintf
	util_alloc_sprintf_va
	util_alloc_string_copy
	util_alloc_string_sum
	util_alloc_stringlist_copy
	util_alloc_strip_copy
	util_alloc_strupr_copy
	util_alloc_substring_copy
	util_alloc_tmp_file
	util_before
	util_binary_split_string
	util_binary_split_string_from_max_length
	util_calloc
	util_char_in
	util_chdir
	util_chdir_file
	util_clamp_double
	util_clock_seed
	util_copy_file
	util_copy_file__
	util_copy_stream
	util_count_content_file_lines
	util_dev_urandom_seed
	util_difftime
	util_difftime_days
	util_difftime_seconds
	util_double_approx_equal
	util_double_approx_equal__
	util_double_max
	util_double_min
	util_double_to_float
	util_double_vector_max_min
	util_double_vector_mean
	util_double_vector_stddev
	util_endian_flip_vector
	util_entry_exists
	util_entry_readable
	util_entry_writable
	util_exit
	util_fd_size
	util_file_difftime
	util_file_exists
	util_file_mtime
	util_file_newer
	util_file_older
	util_file_size
	util_file_update_required
	util_files_equal
	util_float_approx_equal__
	util_float_max
	util_float_min
	util_float_to_double
	util_fmove
	util_fmt_bit8
	util_fmt_bit8_stream
	util_fnmatch
	util_fopen
	util_fopen__
	util_fread
	util_fread_alloc_file_content
	util_fread_alloc_string
	util_fread_bool
	util_fread_char_vector
	util_fread_dev_random
	util_fread_dev_urandom
	util_fread_double
	util_fread_int
	util_fread_long
	util_fread_realloc_string
	util_fread_time_t
	util_free_NULL_terminated_stringlist
	util_free_stringlist
	util_fscanf_alloc_line
	util_fscanf_alloc_token
	util_fscanf_alloc_upto
	util_fscanf_bool
	util_fscanf_date_utc
	util_fscanf_int
	util_fseek
	util_fseek_string
	util_fskip_bool
	util_fskip_cchars
	util_fskip_chars
	util_fskip_int
	util_fskip_lines
	util_fskip_long
	util_fskip_space
	util_fskip_string
	util_fskip_token
	util_fstat
	util_ftell
	util_ftruncate
	util_fwrite
	util_fwrite_bool
	util_fwrite_double
	util_fwrite_double_vector
	util_fwrite_int
	util_fwrite_int_vector
	util_fwrite_long
	util_fwrite_offset
	util_fwrite_size_t
	util_fwrite_string
	util_fwrite_time_t
	util_get_current_linenr
	util_get_timezone
	util_inplace_forward_days_utc
	util_inplace_forward_seconds_utc
	util_install_signals
	util_int_format_count
	util_int_max
	util_int_min
	util_is_abs_path
	util_is_cwd
	util_is_directory
	util_is_executable
	util_is_file
	util_is_first_day_in_month_utc
	util_is_link
	util_kahan_sum
	util_long_max
	util_make_date_utc
	util_make_datetime_utc
	util_make_datetime_utc_validated
	util_make_path
	util_make_pure_date_utc
	util_malloc
	util_mkdir_fopen
	util_mkdir_p
	util_move_file
	util_move_file4
	util_newest_file
	util_parse_int
	util_path_split
	util_realloc
	util_realloc_copy
	util_realloc_dequoted_string
	util_realloc_filename
	util_realloc_sprintf
	util_realloc_string_copy
	util_realloc_substring_copy
	util_rewind
	util_round
	util_roundf
	util_same_file
	util_set_abort_handler
	util_set_date_values_utc
	util_set_datetime_values_utc
	util_size_t_max
	util_size_t_min
	util_skip_sep
	util_sorted_contains_int
	util_sorted_contains_size_t
	util_sorted_contains_time_t
	util_split_alloc_dirname
	util_split_alloc_filename
	util_split_string
	util_sscanf_bool
	util_sscanf_bytesize
	util_sscanf_date_utc
	util_sscanf_double
	util_sscanf_int
	util_sscanf_isodate
	util_sscanf_octal_int
	util_sscanf_percent
	util_stat
	util_strcat_realloc
	util_strcmp_float
	util_strcmp_int
	util_string_equal
	util_string_has_wildcard
	util_string_isspace
	util_string_match
	util_string_replace_alloc
	util_string_replace_inplace
	util_string_replacen_alloc
	util_string_strip_chars_alloc
	util_string_tr
	util_stringlist_append_copy
	util_stringlist_append_ref
	util_strstr_int_format
	util_strupr
	util_time_t_max
	util_time_t_min
	util_time_utc
	util_unlink
	util_unlink_existing
	util_update_double_max_min
	util_update_float_max_min
	util_update_int_max_min
	util_update_signals
	util_usleep
	vector_alloc_NULL_initialized
	vector_alloc_copy
	vector_alloc_new
	vector_alloc_sort_perm
	vector_append_buffer
	vector_append_copy
	vector_append_owned_ref
	vector_append_ref
	vector_clear
	vector_find
	vector_free
	vector_free__
	vector_get_last
	vector_get_last_const
	vector_get_size
	vector_grow_NULL
	vector_idel
	vector_iget
	vector_iget_const
	vector_inplace_reverse
	vector_insert_buffer
	vector_insert_copy
	vector_insert_owned_ref
	vector_insert_ref
	vector_is_instance
	vector_iset_buffer
	vector_iset_copy
	vector_iset_owned_ref
	vector_iset_ref
	vector_permute
	vector_pop_back
	vector_pop_front
	vector_push_buffer
	vector_push_front_owned_ref
	vector_push_front_ref
	vector_safe_cast
	vector_safe_iget
	vector_safe_iget_const
	vector_safe_iset_copy
	vector_safe_iset_owned_ref
	vector_safe_iset_ref
	vector_shrink
	vector_sort
	vfprintf
	well_branch_collection_add_start_segment
	well_branch_collection_alloc
	well_branch_collection_free
	well_branch_collection_free__
	well_branch_collection_get_size
	well_branch_collection_get_start_segment
	well_branch_collection_has_branch
	well_branch_collection_iget_start_segment
	well_branch_collection_is_instance
	well_conn_MSW
	well_conn_alloc
	well_conn_alloc_MSW
	well_conn_alloc_fracture
	well_conn_alloc_fracture_MSW
	well_conn_alloc_from_kw
	well_conn_alloc_wellhead
	well_conn_collection_add
	well_conn_collection_add_ref
	well_conn_collection_alloc
	well_conn_collection_free
	well_conn_collection_free__
	well_conn_collection_get_size
	well_conn_collection_iget
	well_conn_collection_iget_const
	well_conn_collection_is_instance
	well_conn_collection_load_from_kw
	well_conn_equal
	well_conn_fracture_connection
	well_conn_free
	well_conn_free__
	well_conn_get_connection_factor
	well_conn_get_dir
	well_conn_get_gas_rate
	well_conn_get_gas_rate_si
	well_conn_get_i
	well_conn_get_j
	well_conn_get_k
	well_conn_get_oil_rate
	well_conn_get_oil_rate_si
	well_conn_get_segment_id
	well_conn_get_volume_rate
	well_conn_get_volume_rate_si
	well_conn_get_water_rate
	well_conn_get_water_rate_si
	well_conn_is_instance
	well_conn_matrix_connection
	well_conn_open
	well_conn_safe_cast
	well_info_add_UNRST_wells
	well_info_add_UNRST_wells2
	well_info_add_wells
	well_info_add_wells2
	well_info_alloc
	well_info_free
	well_info_get_num_wells
	well_info_get_state_from_report
	well_info_get_state_from_time
	well_info_get_ts
	well_info_has_well
	well_info_iget_state
	well_info_iget_well_name
	well_info_iiget_state
	well_info_load_rst_eclfile
	well_info_load_rstfile
	well_rseg_loader_alloc
	well_rseg_loader_element_count
	well_rseg_loader_free
	well_rseg_loader_load_values
	well_segment_active
	well_segment_add_connection
	well_segment_alloc
	well_segment_alloc_from_kw
	well_segment_collection_add
	well_segment_collection_add_branches
	well_segment_collection_add_connections
	well_segment_collection_alloc
	well_segment_collection_free
	well_segment_collection_get
	well_segment_collection_get_size
	well_segment_collection_has_segment
	well_segment_collection_iget
	well_segment_collection_link
	well_segment_collection_load_from_kw
	well_segment_free
	well_segment_free__
	well_segment_get_branch_id
	well_segment_get_connections
	well_segment_get_depth
	well_segment_get_diameter
	well_segment_get_global_connections
	well_segment_get_id
	well_segment_get_length
	well_segment_get_link_count
	well_segment_get_outlet
	well_segment_get_outlet_id
	well_segment_get_total_length
	well_segment_has_global_grid_connections
	well_segment_has_grid_connections
	well_segment_is_instance
	well_segment_link
	well_segment_link_strict
	well_segment_main_stem
	well_segment_nearest_wellhead
	well_segment_well_is_MSW
	well_state_add_MSW
	well_state_add_MSW2
	well_state_add_connections
	well_state_add_connections2
	well_state_alloc
	well_state_alloc_from_file
	well_state_alloc_from_file2
	well_state_free
	well_state_get_branches
	well_state_get_gas_rate
	well_state_get_gas_rate_si
	well_state_get_global_connections
	well_state_get_global_wellhead
	well_state_get_grid_connections
	well_state_get_name
	well_state_get_oil_rate
	well_state_get_oil_rate_si
	well_state_get_report_nr
	well_state_get_segments
	well_state_get_sim_time
	well_state_get_type
	well_state_get_volume_rate
	well_state_get_volume_rate_si
	well_state_get_water_rate
	well_state_get_water_rate_si
	well_state_get_well_nr
	well_state_get_wellhead
	well_state_has_global_connections
	well_state_has_grid_connections
	well_state_has_segment_data
	well_state_iget_wellhead
	well_state_is_MSW
	well_state_is_instance
	well_state_is_open
	well_state_translate_ecl_type_int
	well_ts_add_well
	well_ts_alloc
	well_ts_free
	well_ts_free__
	well_ts_get_first_state
	well_ts_get_last_state
	well_ts_get_name
	well_ts_get_size
	well_ts_get_state_from_report
	well_ts_get_state_from_sim_time
	well_ts_iget_state
